Archive member included because of file (symbol)

arch/arm/lib/lib.a(ashldi3.o)
                              drivers/mtd/nand/built-in.o (__aeabi_llsl)
arch/arm/lib/lib.a(ashrdi3.o)
                              drivers/mtd/nand/built-in.o (__aeabi_lasr)
arch/arm/lib/lib.a(lib1funcs.o)
                              arch/arm/cpu/arm920t/built-in.o (__aeabi_uidiv)
arch/arm/lib/lib.a(lshrdi3.o)
                              drivers/mtd/built-in.o (__aeabi_llsr)
arch/arm/lib/lib.a(div0.o)    arch/arm/lib/lib.a(lib1funcs.o) (__div0)

Discarded input sections

 .data          0x00000000        0x0 arch/arm/cpu/arm920t/start.o
 .bss           0x00000000        0x0 arch/arm/cpu/arm920t/start.o
 .text          0x00000000        0x0 arch/arm/cpu/arm920t/built-in.o
 .text.get_UCLK
                0x00000000        0x8 arch/arm/cpu/arm920t/built-in.o
 .text.udelay_masked
                0x00000000       0xf0 arch/arm/cpu/arm920t/built-in.o
 .text.led_on   0x00000000       0x24 arch/arm/cpu/arm920t/built-in.o
 .text.led_off  0x00000000       0x24 arch/arm/cpu/arm920t/built-in.o
 .text.__led_toggle
                0x00000000       0x24 arch/arm/cpu/arm920t/built-in.o
 .data          0x00000000        0x0 arch/arm/cpu/arm920t/built-in.o
 .bss           0x00000000        0x0 arch/arm/cpu/arm920t/built-in.o
 .text.armv7_boot_nonsec_default
                0x00000000        0x8 arch/arm/lib/built-in.o
 .text.invalidate_dcache_range
                0x00000000        0x4 arch/arm/lib/built-in.o
 .text.check_cache_range
                0x00000000       0x34 arch/arm/lib/built-in.o
 .text.enable_caches
                0x00000000        0xc arch/arm/lib/built-in.o
 .text.set_section_dcache
                0x00000000       0x14 arch/arm/lib/built-in.o
 .text.mmu_page_table_flush
                0x00000000        0x4 arch/arm/lib/built-in.o
 .text.mmu_set_region_dcache_behaviour
                0x00000000       0x68 arch/arm/lib/built-in.o
 .text.icache_status
                0x00000000       0x10 arch/arm/lib/built-in.o
 .text.fdt_psci
                0x00000000        0x8 arch/arm/lib/built-in.o
 .data          0x00000000        0x0 arch/arm/lib/built-in.o
 .__secure_stack_end
                0x00000000        0x0 arch/arm/lib/built-in.o
 .__secure_stack_start
                0x00000000        0x0 arch/arm/lib/built-in.o
 .__secure_start
                0x00000000        0x0 arch/arm/lib/built-in.o
 .__secure_end  0x00000000        0x0 arch/arm/lib/built-in.o
 .bss           0x00000000        0x0 arch/arm/lib/built-in.o
 .text.board_flash_get_legacy
                0x00000000       0x18 board/samsung/JZ2440/built-in.o
 .data          0x00000000        0x0 board/samsung/JZ2440/built-in.o
 .bss           0x00000000        0x0 board/samsung/JZ2440/built-in.o
 .text          0x00000000        0x0 cmd/built-in.o
 .text.device_find
                0x00000000       0x4c cmd/built-in.o
 .text.common_diskboot
                0x00000000      0x254 cmd/built-in.o
 .data          0x00000000        0x0 cmd/built-in.o
 .bss           0x00000000        0x0 cmd/built-in.o
 .text          0x00000000        0x0 common/built-in.o
 .text.hash_progressive_lookup_algo
                0x00000000       0x38 common/built-in.o
 .text.hash_lookup_algo
                0x00000000       0x28 common/built-in.o
 .text.hash_block
                0x00000000       0x6c common/built-in.o
 .text.hash_parse_string
                0x00000000       0x6c common/built-in.o
 .text.hash_finish_crc32
                0x00000000       0x2c common/built-in.o
 .text.hash_update_crc32
                0x00000000       0x24 common/built-in.o
 .text.hash_init_crc32
                0x00000000       0x24 common/built-in.o
 .text.unset_local_var
                0x00000000       0x9c common/built-in.o
 .text.bootretry_dont_retry
                0x00000000       0x14 common/built-in.o
 .text.red_led_off
                0x00000000        0x4 common/built-in.o
 .text.green_led_on
                0x00000000        0x4 common/built-in.o
 .text.green_led_off
                0x00000000        0x4 common/built-in.o
 .text.yellow_led_on
                0x00000000        0x4 common/built-in.o
 .text.yellow_led_off
                0x00000000        0x4 common/built-in.o
 .text.blue_led_on
                0x00000000        0x4 common/built-in.o
 .text.blue_led_off
                0x00000000        0x4 common/built-in.o
 .text.arch_reserve_stacks
                0x00000000        0x8 common/built-in.o
 .text.fixup_cpu
                0x00000000        0x8 common/built-in.o
 .text.env_flags_parse_varaccess_from_binflags
                0x00000000       0x48 common/built-in.o
 .text.fdt_read_prop
                0x00000000       0xb0 common/built-in.o
 .text.fdt_fixup_display
                0x00000000      0x104 common/built-in.o
 .text.fdt_set_phandle
                0x00000000       0x74 common/built-in.o
 .text.fdt_getprop_u32_default_node
                0x00000000       0x54 common/built-in.o
 .text.fdt_getprop_u32_default
                0x00000000       0x54 common/built-in.o
 .text.fdt_setup_simplefb_node
                0x00000000      0x260 common/built-in.o
 .text.fdt_set_node_status
                0x00000000      0x104 common/built-in.o
 .text.fdt_set_status_by_alias
                0x00000000       0x44 common/built-in.o
 .text.fdt_alloc_phandle
                0x00000000       0x58 common/built-in.o
 .text.fdt_create_phandle
                0x00000000       0x64 common/built-in.o
 .text.fdt_del_node_and_alias
                0x00000000       0x64 common/built-in.o
 .text.fdt_increase_size
                0x00000000       0x30 common/built-in.o
 .text.fdt_add_edid
                0x00000000       0xa8 common/built-in.o
 .text.do_fixup_by_compat
                0x00000000       0x84 common/built-in.o
 .text.do_fixup_by_compat_u32
                0x00000000       0x40 common/built-in.o
 .text.do_fixup_by_path_u32
                0x00000000       0x40 common/built-in.o
 .text.do_fixup_by_prop
                0x00000000       0x98 common/built-in.o
 .text.do_fixup_by_prop_u32
                0x00000000       0x50 common/built-in.o
 .text.fdt_read_range
                0x00000000      0x13c common/built-in.o
 .text.fdt_get_base_address
                0x00000000       0x60 common/built-in.o
 .text.fdt_verify_alias_address
                0x00000000       0xe8 common/built-in.o
 .text.fdt_node_offset_by_compat_reg
                0x00000000       0x8c common/built-in.o
 .text.usb_disable_asynch
                0x00000000       0x1c common/built-in.o
 .text.board_usb_init
                0x00000000        0x8 common/built-in.o
 .text.board_usb_cleanup
                0x00000000        0x8 common/built-in.o
 .text.usb_find_usb2_hub_address_port
                0x00000000       0x5c common/built-in.o
 .text.usb_bulk_msg
                0x00000000       0x70 common/built-in.o
 .text.usb_get_class_descriptor
                0x00000000       0x6c common/built-in.o
 .text.usb_get_report
                0x00000000       0x6c common/built-in.o
 .text.usb_set_interface
                0x00000000       0xc8 common/built-in.o
 .text.usb_clear_halt
                0x00000000       0xa8 common/built-in.o
 .text.usb_detect_change
                0x00000000       0x74 common/built-in.o
 .text.splash_screen_prepare
                0x00000000        0x8 common/built-in.o
 .text.lcd_set_flush_dcache
                0x00000000       0x18 common/built-in.o
 .text.lcd_get_pixel_width
                0x00000000       0x10 common/built-in.o
 .text.lcd_get_pixel_height
                0x00000000       0x10 common/built-in.o
 .text.lcd_position_cursor
                0x00000000       0x58 common/built-in.o
 .text.lcd_get_screen_rows
                0x00000000       0x10 common/built-in.o
 .text.lcd_get_screen_columns
                0x00000000       0x10 common/built-in.o
 .text.overwrite_console
                0x00000000        0x8 common/built-in.o
 .text.env_get_char_memory
                0x00000000       0x24 common/built-in.o
 .text.env_get_addr
                0x00000000       0x24 common/built-in.o
 .text.disable_ctrlc
                0x00000000       0x18 common/built-in.o
 .text.fprintf  0x00000000       0x58 common/built-in.o
 .text.serial_printf
                0x00000000       0x50 common/built-in.o
 .text.malloc_usable_size
                0x00000000       0x44 common/built-in.o
 .text.mallopt  0x00000000       0x74 common/built-in.o
 .text.cfree    0x00000000        0x4 common/built-in.o
 .text.pvalloc  0x00000000       0x18 common/built-in.o
 .text.valloc   0x00000000        0xc common/built-in.o
 .text.get_table_entry
                0x00000000       0x24 common/built-in.o
 .text.genimg_get_cat_count
                0x00000000       0x18 common/built-in.o
 .text.genimg_get_cat_desc
                0x00000000       0x18 common/built-in.o
 .text.get_table_entry_name
                0x00000000       0x34 common/built-in.o
 .text.genimg_get_arch_name
                0x00000000       0x40 common/built-in.o
 .text.genimg_get_type_short_name
                0x00000000       0x40 common/built-in.o
 .text.genimg_get_comp_short_name
                0x00000000       0x40 common/built-in.o
 .text.genimg_get_os_short_name
                0x00000000       0x40 common/built-in.o
 .text.genimg_get_arch_short_name
                0x00000000       0x40 common/built-in.o
 .text.genimg_get_kernel_addr
                0x00000000       0x20 common/built-in.o
 .text.get_table_entry_id
                0x00000000       0x4c common/built-in.o
 .text.genimg_get_comp_id
                0x00000000       0x18 common/built-in.o
 .text.genimg_get_type_id
                0x00000000       0x18 common/built-in.o
 .text.genimg_get_arch_id
                0x00000000       0x18 common/built-in.o
 .text.genimg_get_os_id
                0x00000000       0x18 common/built-in.o
 .text.unknown_msg
                0x00000000       0x44 common/built-in.o
 .text.genimg_get_cat_short_name
                0x00000000       0x48 common/built-in.o
 .text.genimg_get_cat_name
                0x00000000       0x48 common/built-in.o
 .text.get_ram_size
                0x00000000      0x10c common/built-in.o
 .text.stdio_init
                0x00000000       0x24 common/built-in.o
 .text.cli_simple_loop
                0x00000000       0xbc common/built-in.o
 .text.cli_simple_process_macros
                0x00000000      0x1e0 common/built-in.o
 .text.cli_simple_parse_line
                0x00000000       0x8c common/built-in.o
 .text.cli_simple_run_command
                0x00000000      0x150 common/built-in.o
 .text.cli_simple_run_command_list
                0x00000000       0x7c common/built-in.o
 .text.run_command_repeatable
                0x00000000       0x18 common/built-in.o
 .rodata.table_info
                0x00000000       0x30 common/built-in.o
 .data          0x00000000        0x0 common/built-in.o
 .data.hash_algo
                0x00000000       0x1c common/built-in.o
 .data.mmap_threshold
                0x00000000        0x4 common/built-in.o
 .bss           0x00000000        0x0 common/built-in.o
 .bss.n_mmaps_max
                0x00000000        0x4 common/built-in.o
 .bss.save_addr
                0x00000000        0x4 common/built-in.o
 .bss.msg.6704  0x00000000       0x20 common/built-in.o
 .bss.save_size
                0x00000000        0x4 common/built-in.o
 .bss.lastcommand.5041
                0x00000000      0x104 common/built-in.o
 .text          0x00000000        0x0 disk/built-in.o
 .text.blk_get_dev
                0x00000000        0x8 disk/built-in.o
 .text.part_print
                0x00000000      0x154 disk/built-in.o
 .text.dev_print
                0x00000000      0x224 disk/built-in.o
 .data          0x00000000        0x0 disk/built-in.o
 .bss           0x00000000        0x0 disk/built-in.o
 .text          0x00000000        0x0 drivers/built-in.o
 .text.device_find_child_by_seq
                0x00000000       0x58 drivers/built-in.o
 .text.device_find_child_by_of_offset
                0x00000000       0x44 drivers/built-in.o
 .text._device_find_global_by_of_offset
                0x00000000       0x50 drivers/built-in.o
 .text.device_find_first_child
                0x00000000       0x1c drivers/built-in.o
 .text.device_find_next_child
                0x00000000       0x28 drivers/built-in.o
 .text.dev_get_parent
                0x00000000        0x8 drivers/built-in.o
 .text.dev_get_driver_data
                0x00000000        0x8 drivers/built-in.o
 .text.dev_get_driver_ops
                0x00000000       0x10 drivers/built-in.o
 .text.device_get_uclass_id
                0x00000000       0x10 drivers/built-in.o
 .text.dev_get_uclass_name
                0x00000000       0x14 drivers/built-in.o
 .text.dev_get_addr_index
                0x00000000        0x8 drivers/built-in.o
 .text.dev_get_addr_name
                0x00000000        0x8 drivers/built-in.o
 .text.dev_get_addr
                0x00000000        0x8 drivers/built-in.o
 .text.dev_get_addr_ptr
                0x00000000        0x8 drivers/built-in.o
 .text.dev_map_physmem
                0x00000000        0x8 drivers/built-in.o
 .text.device_has_children
                0x00000000       0x14 drivers/built-in.o
 .text.device_has_active_children
                0x00000000       0x50 drivers/built-in.o
 .text.device_is_last_sibling
                0x00000000       0x28 drivers/built-in.o
 .text.device_set_name_alloced
                0x00000000       0x10 drivers/built-in.o
 .text.of_machine_is_compatible
                0x00000000       0x24 drivers/built-in.o
 .text.of_device_is_compatible
                0x00000000       0x28 drivers/built-in.o
 .text.device_set_name
                0x00000000       0x30 drivers/built-in.o
 .text.dev_get_parent_priv
                0x00000000       0x30 drivers/built-in.o
 .text.dev_get_uclass_priv
                0x00000000       0x30 drivers/built-in.o
 .text.dev_get_priv
                0x00000000       0x30 drivers/built-in.o
 .text.dev_get_uclass_platdata
                0x00000000       0x30 drivers/built-in.o
 .text.dev_get_parent_platdata
                0x00000000       0x30 drivers/built-in.o
 .text.dev_get_platdata
                0x00000000       0x30 drivers/built-in.o
 .text.device_get_global_by_of_offset
                0x00000000       0x38 drivers/built-in.o
 .text.device_get_child_by_of_offset
                0x00000000       0x58 drivers/built-in.o
 .text.device_get_child_by_seq
                0x00000000       0x90 drivers/built-in.o
 .text.device_get_child
                0x00000000       0x50 drivers/built-in.o
 .text.device_bind
                0x00000000       0x2c drivers/built-in.o
 .text.device_bind_with_driver_data
                0x00000000       0x30 drivers/built-in.o
 .text.device_bind_driver_to_node
                0x00000000       0x40 drivers/built-in.o
 .text.device_bind_driver
                0x00000000       0x14 drivers/built-in.o
 .text.dm_uninit
                0x00000000       0x14 drivers/built-in.o
 .text.dm_set_translation_offset
                0x00000000       0x18 drivers/built-in.o
 .text.dm_get_translation_offset
                0x00000000       0x14 drivers/built-in.o
 .text.uclass_find
                0x00000000       0x4c drivers/built-in.o
 .text.uclass_find_next_device
                0x00000000       0x2c drivers/built-in.o
 .text.uclass_get_device_by_driver
                0x00000000       0x60 drivers/built-in.o
 .text.uclass_find_device_by_of_offset
                0x00000000       0x60 drivers/built-in.o
 .text.uclass_get_device_by_of_offset
                0x00000000       0x2c drivers/built-in.o
 .text.uclass_get_device_by_seq
                0x00000000       0x50 drivers/built-in.o
 .text.uclass_find_device_by_name
                0x00000000       0x88 drivers/built-in.o
 .text.uclass_get_device_by_name
                0x00000000       0x2c drivers/built-in.o
 .text.uclass_first_device_err
                0x00000000       0x28 drivers/built-in.o
 .text.uclass_find_device
                0x00000000       0x68 drivers/built-in.o
 .text.uclass_get_device
                0x00000000       0x2c drivers/built-in.o
 .text.uclass_destroy
                0x00000000       0x6c drivers/built-in.o
 .text.list_count_items
                0x00000000       0x24 drivers/built-in.o
 .text.dm_dbg   0x00000000       0x28 drivers/built-in.o
 .text.blk_write_devnum
                0x00000000       0x54 drivers/built-in.o
 .text.blk_select_hwpart_devnum
                0x00000000       0x40 drivers/built-in.o
 .text.blk_read_devnum
                0x00000000       0x7c drivers/built-in.o
 .text.blk_show_device
                0x00000000       0x80 drivers/built-in.o
 .text.blk_print_device_num
                0x00000000       0x50 drivers/built-in.o
 .text.blk_list_devices
                0x00000000       0x70 drivers/built-in.o
 .text.blk_print_part_devnum
                0x00000000       0x48 drivers/built-in.o
 .text.blk_list_part
                0x00000000       0x8c drivers/built-in.o
 .text.status_led_tick
                0x00000000       0x6c drivers/built-in.o
 .text.rtc_mktime
                0x00000000       0xb0 drivers/built-in.o
 .text.input_tstc
                0x00000000       0x48 drivers/built-in.o
 .text.input_getc
                0x00000000       0x68 drivers/built-in.o
 .text.input_add_table
                0x00000000       0x44 drivers/built-in.o
 .text.input_set_delays
                0x00000000        0xc drivers/built-in.o
 .text.input_allow_repeats
                0x00000000        0x8 drivers/built-in.o
 .text.input_leds_changed
                0x00000000       0x14 drivers/built-in.o
 .text.input_add_tables
                0x00000000       0x80 drivers/built-in.o
 .text.input_stdio_register
                0x00000000       0x50 drivers/built-in.o
 .text.input_init
                0x00000000       0x24 drivers/built-in.o
 .text.sort_array_by_ordering
                0x00000000       0xd8 drivers/built-in.o
 .text._input_send_keycodes
                0x00000000      0x368 drivers/built-in.o
 .text.input_add_keycode
                0x00000000       0x8c drivers/built-in.o
 .text.input_send_keycodes
                0x00000000        0x8 drivers/built-in.o
 .rodata.__func__.7792
                0x00000000       0x10 drivers/built-in.o
 .rodata.__func__.7771
                0x00000000       0x14 drivers/built-in.o
 .rodata.__func__.7778
                0x00000000       0x18 drivers/built-in.o
 .rodata.__func__.7785
                0x00000000       0x18 drivers/built-in.o
 .rodata.__func__.7799
                0x00000000       0x14 drivers/built-in.o
 .rodata.__func__.7806
                0x00000000       0x14 drivers/built-in.o
 .rodata.kbd_to_ansi364
                0x00000000       0x20 drivers/built-in.o
 .rodata.kbd_plain_xlate
                0x00000000       0x64 drivers/built-in.o
 .rodata.kbd_plain_xlate_german
                0x00000000       0x84 drivers/built-in.o
 .rodata.CSWTCH.135
                0x00000000       0x34 drivers/built-in.o
 .data          0x00000000        0x0 drivers/built-in.o
 .data.kbd_ctrl_xlate
                0x00000000       0x64 drivers/built-in.o
 .data.kbd_right_alt_xlate_german
                0x00000000       0x58 drivers/built-in.o
 .data.kbd_shift_xlate_german
                0x00000000       0x84 drivers/built-in.o
 .data.kbd_entry
                0x00000000       0x8c drivers/built-in.o
 .data.kbd_shift_xlate
                0x00000000       0x64 drivers/built-in.o
 .bss           0x00000000        0x0 drivers/built-in.o
 .text          0x00000000        0x0 drivers/mtd/built-in.o
 .text.idr_remove
                0x00000000       0x14 drivers/mtd/built-in.o
 .text.idr_find
                0x00000000       0x18 drivers/mtd/built-in.o
 .text.idr_get_next
                0x00000000       0x48 drivers/mtd/built-in.o
 .text.idr_alloc
                0x00000000       0x40 drivers/mtd/built-in.o
 .text.__mtd_next_device
                0x00000000       0x20 drivers/mtd/built-in.o
 .text.mtd_get_unmapped_area
                0x00000000       0x6c drivers/mtd/built-in.o
 .text.mtd_panic_write
                0x00000000       0xb4 drivers/mtd/built-in.o
 .text.mtd_get_fact_prot_info
                0x00000000       0x30 drivers/mtd/built-in.o
 .text.mtd_read_fact_prot_reg
                0x00000000       0x4c drivers/mtd/built-in.o
 .text.mtd_get_user_prot_info
                0x00000000       0x30 drivers/mtd/built-in.o
 .text.mtd_read_user_prot_reg
                0x00000000       0x4c drivers/mtd/built-in.o
 .text.mtd_write_user_prot_reg
                0x00000000       0x68 drivers/mtd/built-in.o
 .text.mtd_lock_user_prot_reg
                0x00000000       0x30 drivers/mtd/built-in.o
 .text.mtd_lock
                0x00000000       0xac drivers/mtd/built-in.o
 .text.mtd_is_locked
                0x00000000       0xac drivers/mtd/built-in.o
 .text.mtd_block_isreserved
                0x00000000       0x4c drivers/mtd/built-in.o
 .text.mtd_is_partition
                0x00000000       0x3c drivers/mtd/built-in.o
 .text.cfi_flash_bank_addr
                0x00000000       0x10 drivers/mtd/built-in.o
 .text.flash_get_info
                0x00000000       0x68 drivers/mtd/built-in.o
 .text.flash_sector_size
                0x00000000       0x40 drivers/mtd/built-in.o
 .data          0x00000000        0x0 drivers/mtd/built-in.o
 .bss           0x00000000        0x0 drivers/mtd/built-in.o
 .bss.mtd_table
                0x00000000       0x80 drivers/mtd/built-in.o
 .text          0x00000000        0x0 drivers/mtd/nand/built-in.o
 .text.nand_bch_calculate_ecc
                0x00000000        0x8 drivers/mtd/nand/built-in.o
 .text.nand_bch_correct_data
                0x00000000        0xc drivers/mtd/nand/built-in.o
 .text.onfi_async_timing_mode_to_sdr_timings
                0x00000000       0x20 drivers/mtd/nand/built-in.o
 .rodata.onfi_sdr_timings
                0x00000000      0x360 drivers/mtd/nand/built-in.o
 .data          0x00000000        0x0 drivers/mtd/nand/built-in.o
 .bss           0x00000000        0x0 drivers/mtd/nand/built-in.o
 .text          0x00000000        0x0 drivers/mtd/ubi/built-in.o
 .text.ubi_get_by_major
                0x00000000       0x4c drivers/mtd/ubi/built-in.o
 .text.ubi_major2num
                0x00000000       0x44 drivers/mtd/ubi/built-in.o
 .text.ubi_enumerate_volumes
                0x00000000       0x4c drivers/mtd/ubi/built-in.o
 .text.ubi_vtbl_rename_volumes
                0x00000000      0x140 drivers/mtd/ubi/built-in.o
 .text.ubi_remove_volume
                0x00000000       0xf4 drivers/mtd/ubi/built-in.o
 .text.ubi_rename_volumes
                0x00000000       0xac drivers/mtd/ubi/built-in.o
 .text.ubi_more_leb_change_data
                0x00000000      0x13c drivers/mtd/ubi/built-in.o
 .text.ubi_start_leb_change
                0x00000000       0xd8 drivers/mtd/ubi/built-in.o
 .text.ubi_flush
                0x00000000       0x3c drivers/mtd/ubi/built-in.o
 .text.ubi_sync
                0x00000000       0x38 drivers/mtd/ubi/built-in.o
 .text.ubi_leb_map
                0x00000000       0x88 drivers/mtd/ubi/built-in.o
 .text.ubi_leb_write
                0x00000000       0xe4 drivers/mtd/ubi/built-in.o
 .text.ubi_leb_erase
                0x00000000       0x88 drivers/mtd/ubi/built-in.o
 .text.ubi_leb_change
                0x00000000       0xcc drivers/mtd/ubi/built-in.o
 .text.ubi_next_sqnum
                0x00000000       0x30 drivers/mtd/ubi/built-in.o
 .text.self_check_eba
                0x00000000      0x238 drivers/mtd/ubi/built-in.o
 .text.ubi_thread
                0x00000000       0xbc drivers/mtd/ubi/built-in.o
 .text.ubi_dump_mkvol_req
                0x00000000       0x1c drivers/mtd/ubi/built-in.o
 .data          0x00000000        0x0 drivers/mtd/ubi/built-in.o
 .bss           0x00000000        0x0 drivers/mtd/ubi/built-in.o
 .text          0x00000000        0x0 drivers/net/built-in.o
 .text.dm9000_write_srom_word
                0x00000000       0x64 drivers/net/built-in.o
 .data          0x00000000        0x0 drivers/net/built-in.o
 .bss           0x00000000        0x0 drivers/net/built-in.o
 .text          0x00000000        0x0 drivers/serial/built-in.o
 .text.serial_reinit_all
                0x00000000       0x2c drivers/serial/built-in.o
 .text.default_serial_puts
                0x00000000       0x34 drivers/serial/built-in.o
 .data          0x00000000        0x0 drivers/serial/built-in.o
 .bss           0x00000000        0x0 drivers/serial/built-in.o
 .text          0x00000000        0x0 drivers/spi/built-in.o
 .text.spi_do_alloc_slave
                0x00000000       0x4c drivers/spi/built-in.o
 .text.spi_set_wordlen
                0x00000000       0x30 drivers/spi/built-in.o
 .rodata.str1.1
                0x00000000       0x19 drivers/spi/built-in.o
 .data          0x00000000        0x0 drivers/spi/built-in.o
 .bss           0x00000000        0x0 drivers/spi/built-in.o
 .text          0x00000000        0x0 drivers/usb/host/built-in.o
 .text.rh_check_port_status
                0x00000000       0xc8 drivers/usb/host/built-in.o
 .text.submit_bulk_msg
                0x00000000       0x18 drivers/usb/host/built-in.o
 .data          0x00000000        0x0 drivers/usb/host/built-in.o
 .bss           0x00000000        0x0 drivers/usb/host/built-in.o
 .text          0x00000000        0x0 fs/built-in.o
 .text.fs_uuid  0x00000000       0x38 fs/built-in.o
 .text.fs_ls    0x00000000       0x4c fs/built-in.o
 .text.fs_size  0x00000000       0x44 fs/built-in.o
 .text.fs_write
                0x00000000       0x8c fs/built-in.o
 .text.fs_read  0x00000000       0xa0 fs/built-in.o
 .text.do_fs_type
                0x00000000       0x90 fs/built-in.o
 .text.do_fs_uuid
                0x00000000       0x94 fs/built-in.o
 .text.do_save  0x00000000      0x18c fs/built-in.o
 .text.do_ls    0x00000000       0x68 fs/built-in.o
 .text.do_load  0x00000000      0x254 fs/built-in.o
 .text.do_size  0x00000000       0x5c fs/built-in.o
 .text.ubifs_ro_mode
                0x00000000       0x34 fs/built-in.o
 .text.ubifs_wbuf_add_ino_nolock
                0x00000000       0x2c fs/built-in.o
 .text.ubifs_prep_grp_node
                0x00000000      0x134 fs/built-in.o
 .text.ubifs_prepare_node
                0x00000000      0x18c fs/built-in.o
 .text.ubifs_leb_map
                0x00000000       0x5c fs/built-in.o
 .text.ubifs_leb_change
                0x00000000       0x5c fs/built-in.o
 .text.ubifs_leb_write
                0x00000000       0x64 fs/built-in.o
 .text.ubifs_wbuf_sync_nolock
                0x00000000      0x120 fs/built-in.o
 .text.ubifs_sync_wbufs_by_inode
                0x00000000       0xd0 fs/built-in.o
 .text.set_anon_super
                0x00000000        0x8 fs/built-in.o
 .text.iget_failed
                0x00000000        0x4 fs/built-in.o
 .text.clear_nlink
                0x00000000       0x38 fs/built-in.o
 .text.unlock_new_inode
                0x00000000        0x4 fs/built-in.o
 .text.fixup_leb
                0x00000000       0x60 fs/built-in.o
 .text.ubifs_write_sb_node
                0x00000000       0x40 fs/built-in.o
 .text.ubifs_fixup_free_space
                0x00000000      0x20c fs/built-in.o
 .text.pack_bits
                0x00000000       0xa0 fs/built-in.o
 .text.ubifs_add_lpt_dirt
                0x00000000       0x30 fs/built-in.o
 .text.dbg_check_lpt_nodes
                0x00000000        0x8 fs/built-in.o
 .text.scan_get_pnode
                0x00000000      0x1d4 fs/built-in.o
 .text.scan_get_nnode
                0x00000000      0x15c fs/built-in.o
 .text.ubifs_pack_lsave
                0x00000000       0x9c fs/built-in.o
 .text.ubifs_pack_ltab
                0x00000000       0xc4 fs/built-in.o
 .text.ubifs_pack_nnode
                0x00000000       0xec fs/built-in.o
 .text.ubifs_pack_pnode
                0x00000000       0xfc fs/built-in.o
 .text.ubifs_lpt_scan_nolock
                0x00000000      0x360 fs/built-in.o
 .text.ubifs_lpt_lookup
                0x00000000       0xa0 fs/built-in.o
 .text.ubifs_create_dflt_lpt
                0x00000000      0x8c0 fs/built-in.o
 .text.alloc_lpt_leb
                0x00000000       0xc8 fs/built-in.o
 .text.need_write_all
                0x00000000       0xb4 fs/built-in.o
 .text.pnode_lookup
                0x00000000       0x84 fs/built-in.o
 .text.do_make_pnode_dirty
                0x00000000       0xa8 fs/built-in.o
 .text.lpt_gc   0x00000000      0x47c fs/built-in.o
 .text.ubifs_lpt_post_commit
                0x00000000       0xa4 fs/built-in.o
 .text.ubifs_lpt_start_commit
                0x00000000      0xa7c fs/built-in.o
 .text.ubifs_ensure_cat
                0x00000000       0x48 fs/built-in.o
 .text.ubifs_calc_dark
                0x00000000       0x20 fs/built-in.o
 .text.ubifs_fast_find_free
                0x00000000       0x18 fs/built-in.o
 .text.ubifs_fast_find_empty
                0x00000000       0x14 fs/built-in.o
 .text.ubifs_fast_find_freeable
                0x00000000       0x14 fs/built-in.o
 .text.ubifs_fast_find_frdi_idx
                0x00000000       0x14 fs/built-in.o
 .text.dbg_check_cats
                0x00000000        0x8 fs/built-in.o
 .text.dbg_check_heap
                0x00000000        0x4 fs/built-in.o
 .text.dbg_check_lprops
                0x00000000        0x8 fs/built-in.o
 .text.scan_check_cb
                0x00000000      0x530 fs/built-in.o
 .text.ubifs_read_one_lp
                0x00000000       0x30 fs/built-in.o
 .text.ubifs_get_lp_stats
                0x00000000       0x14 fs/built-in.o
 .text.dbg_check_inode_size
                0x00000000        0x8 fs/built-in.o
 .text.left_znode
                0x00000000       0x68 fs/built-in.o
 .text.lookup_znode
                0x00000000      0x2b4 fs/built-in.o
 .text.is_idx_node_in_tnc
                0x00000000       0x34 fs/built-in.o
 .text.ubifs_tnc_get_bu_keys
                0x00000000      0x24c fs/built-in.o
 .text.ubifs_dirty_idx_node
                0x00000000       0x40 fs/built-in.o
 .text.ubifs_tnc_has_node
                0x00000000      0x1fc fs/built-in.o
 .text.ubifs_tnc_replace
                0x00000000      0x2e4 fs/built-in.o
 .text.ubifs_tnc_lookup_nm
                0x00000000       0xe0 fs/built-in.o
 .text.ubifs_tnc_bulk_read
                0x00000000      0x1dc fs/built-in.o
 .text.ubifs_tnc_levelorder_next
                0x00000000      0x164 fs/built-in.o
 .text.dbg_ntype
                0x00000000       0x1c fs/built-in.o
 .text.dbg_cstate
                0x00000000       0x1c fs/built-in.o
 .text.dbg_jhead
                0x00000000       0x1c fs/built-in.o
 .text.ubifs_dump_budget_req
                0x00000000        0x4 fs/built-in.o
 .text.ubifs_dump_lstats
                0x00000000        0x4 fs/built-in.o
 .text.ubifs_dump_budg
                0x00000000        0x4 fs/built-in.o
 .text.ubifs_dump_lpt_info
                0x00000000        0x4 fs/built-in.o
 .text.ubifs_dump_sleb
                0x00000000       0x30 fs/built-in.o
 .text.ubifs_dump_heap
                0x00000000        0x4 fs/built-in.o
 .text.dump_znode
                0x00000000        0x8 fs/built-in.o
 .text.add_size
                0x00000000       0x34 fs/built-in.o
 .text.dbg_walk_index
                0x00000000      0x198 fs/built-in.o
 .text.ubifs_dump_index
                0x00000000       0x14 fs/built-in.o
 .text.ubifs_dump_tnc
                0x00000000       0x2c fs/built-in.o
 .text.ubifs_dump_leb
                0x00000000       0x8c fs/built-in.o
 .text.ubifs_dump_lprop
                0x00000000       0x38 fs/built-in.o
 .text.ubifs_dump_lprops
                0x00000000       0x58 fs/built-in.o
 .text.dbg_snprintf_key
                0x00000000      0x120 fs/built-in.o
 .text.add_node
                0x00000000       0xd0 fs/built-in.o
 .text.destroy_done_tree
                0x00000000       0x30 fs/built-in.o
 .text.ubifs_consolidate_log
                0x00000000      0x2b4 fs/built-in.o
 .text.ubifs_log_post_commit
                0x00000000       0xb8 fs/built-in.o
 .text.ubifs_log_end_commit
                0x00000000       0x38 fs/built-in.o
 .text.ubifs_log_start_commit
                0x00000000      0x364 fs/built-in.o
 .text.ubifs_add_bud_to_log
                0x00000000      0x38c fs/built-in.o
 .text.ubifs_orphan_start_commit
                0x00000000       0x84 fs/built-in.o
 .text.ubifs_add_orphan
                0x00000000      0x10c fs/built-in.o
 .text.ubifs_delete_orphan
                0x00000000       0xd0 fs/built-in.o
 .text.ubifs_orphan_end_commit
                0x00000000      0x3c8 fs/built-in.o
 .text.dbg_orphan_check
                0x00000000       0xf0 fs/built-in.o
 .text.ubifs_rcvry_gc_commit
                0x00000000        0x8 fs/built-in.o
 .text.ubifs_clean_lebs
                0x00000000      0x1d0 fs/built-in.o
 .text.recover_head
                0x00000000       0xdc fs/built-in.o
 .text.ubifs_recover_inl_heads
                0x00000000       0x3c fs/built-in.o
 .text.ubifs_write_rcvrd_mst_node
                0x00000000      0x150 fs/built-in.o
 .text.yaffs_set_attribs
                0x00000000       0x8c fs/built-in.o
 .text.yaffs_get_file_size
                0x00000000       0x60 fs/built-in.o
 .text.yaffs_get_attribs
                0x00000000       0x50 fs/built-in.o
 .text.yaffsfs_GetLastError
                0x00000000       0x10 fs/built-in.o
 .text.yaffsfs_GetError
                0x00000000       0x10 fs/built-in.o
 .text.yaffsfs_LocalInitialisation
                0x00000000        0x4 fs/built-in.o
 .text.yaffs_bug_fn
                0x00000000       0x14 fs/built-in.o
 .text.yaffs_free
                0x00000000        0x4 fs/built-in.o
 .text.yaffsfs_free
                0x00000000        0x4 fs/built-in.o
 .text.yaffs_malloc
                0x00000000        0x4 fs/built-in.o
 .text.yaffsfs_malloc
                0x00000000        0x4 fs/built-in.o
 .text.yaffs_error_to_str
                0x00000000       0x4c fs/built-in.o
 .text.yaffs_set_trace
                0x00000000       0x10 fs/built-in.o
 .text.yaffs_get_trace
                0x00000000       0x10 fs/built-in.o
 .text.yaffsfs_Match
                0x00000000       0x10 fs/built-in.o
 .text.yaffsfs_IsPathDivider
                0x00000000       0x34 fs/built-in.o
 .text.yaffs_getdev
                0x00000000       0x10 fs/built-in.o
 .text.yaffs_remove_device
                0x00000000       0x20 fs/built-in.o
 .text.yaffs_dump_dev
                0x00000000        0x8 fs/built-in.o
 .text.yaffs_set_error
                0x00000000       0x10 fs/built-in.o
 .text.yaffs_mknod
                0x00000000       0x14 fs/built-in.o
 .text.yaffs_get_error
                0x00000000        0x4 fs/built-in.o
 .text.yaffs_n_handles
                0x00000000       0x80 fs/built-in.o
 .text.yaffs_rewinddir
                0x00000000       0x5c fs/built-in.o
 .text.yaffs_inodecount
                0x00000000       0x90 fs/built-in.o
 .text.yaffs_totalspace
                0x00000000       0xb4 fs/built-in.o
 .text.yaffs_access
                0x00000000      0x148 fs/built-in.o
 .text.yaffs_dup
                0x00000000       0xdc fs/built-in.o
 .text.yaffs_readlink
                0x00000000      0x10c fs/built-in.o
 .text.yaffsfs_CheckNameLength
                0x00000000       0x40 fs/built-in.o
 .text.yaffs_link
                0x00000000      0x200 fs/built-in.o
 .text.yaffs_symlink
                0x00000000      0x17c fs/built-in.o
 .text.yaffs_remount
                0x00000000       0xd0 fs/built-in.o
 .text.yaffs_sync
                0x00000000       0x8c fs/built-in.o
 .text.yaffs_mount2
                0x00000000        0x8 fs/built-in.o
 .text.yaffsfs_DoChMod
                0x00000000       0x4c fs/built-in.o
 .text.yaffs_fchmod
                0x00000000       0x74 fs/built-in.o
 .text.yaffs_chmod
                0x00000000      0x104 fs/built-in.o
 .text.yaffs_Dofsync
                0x00000000       0x5c fs/built-in.o
 .text.yaffs_fdatasync
                0x00000000        0x8 fs/built-in.o
 .text.yaffs_fsync
                0x00000000        0x8 fs/built-in.o
 .text.yaffs_flush
                0x00000000        0x4 fs/built-in.o
 .text.yaffs_fremovexattr
                0x00000000       0x60 fs/built-in.o
 .text.yaffs_do_removexattr
                0x00000000      0x10c fs/built-in.o
 .text.yaffs_lremovexattr
                0x00000000        0x8 fs/built-in.o
 .text.yaffs_removexattr
                0x00000000        0x8 fs/built-in.o
 .text.yaffs_flistxattr
                0x00000000       0x68 fs/built-in.o
 .text.yaffs_do_listxattr
                0x00000000      0x114 fs/built-in.o
 .text.yaffs_llistxattr
                0x00000000        0x8 fs/built-in.o
 .text.yaffs_listxattr
                0x00000000        0x8 fs/built-in.o
 .text.yaffs_fgetxattr
                0x00000000       0x78 fs/built-in.o
 .text.yaffs_do_getxattr
                0x00000000      0x124 fs/built-in.o
 .text.yaffs_lgetxattr
                0x00000000       0x14 fs/built-in.o
 .text.yaffs_getxattr
                0x00000000       0x14 fs/built-in.o
 .text.yaffs_fsetxattr
                0x00000000       0x7c fs/built-in.o
 .text.yaffs_do_setxattr
                0x00000000      0x12c fs/built-in.o
 .text.yaffs_lsetxattr
                0x00000000       0x1c fs/built-in.o
 .text.yaffs_setxattr
                0x00000000       0x1c fs/built-in.o
 .text.yaffsfs_DoUtime
                0x00000000       0x8c fs/built-in.o
 .text.yaffs_futime
                0x00000000       0x48 fs/built-in.o
 .text.yaffs_utime
                0x00000000       0xd8 fs/built-in.o
 .text.yaffs_lseek
                0x00000000      0x10c fs/built-in.o
 .text.yaffs_fstat
                0x00000000       0x5c fs/built-in.o
 .text.yaffs_ftruncate
                0x00000000       0xf0 fs/built-in.o
 .text.yaffs_truncate
                0x00000000      0x14c fs/built-in.o
 .text.yaffs_pwrite
                0x00000000        0x8 fs/built-in.o
 .text.yaffs_pread
                0x00000000        0x8 fs/built-in.o
 .text.yaffs_root
                0x00000000        0x8 fs/built-in.o
 .text.yaffs_lost_n_found
                0x00000000        0x8 fs/built-in.o
 .text.yaffs_check_ff
                0x00000000       0x34 fs/built-in.o
 .text.yaffs_max_file_size
                0x00000000       0x1c fs/built-in.o
 .text.yaffs_oh_size_load
                0x00000000        0xc fs/built-in.o
 .text.yaffs_is_managed_tmp_buffer
                0x00000000       0x94 fs/built-in.o
 .text.yaffs_handle_defered_free
                0x00000000       0x10 fs/built-in.o
 .text.yaffs_get_symlink_alias
                0x00000000       0x24 fs/built-in.o
 .text.yaffs_get_obj_type
                0x00000000       0x6c fs/built-in.o
 .text.yaffs_get_obj_inode
                0x00000000       0x10 fs/built-in.o
 .text.yaffs_do_xattrib_fetch
                0x00000000      0x11c fs/built-in.o
 .text.yaffs_list_xattrib
                0x00000000       0x10 fs/built-in.o
 .text.yaffs_get_xattrib
                0x00000000        0x4 fs/built-in.o
 .text.yaffs_remove_xattrib
                0x00000000       0x58 fs/built-in.o
 .text.yaffs_set_xattrib
                0x00000000       0x60 fs/built-in.o
 .text.yaffs_update_dirty_dirs
                0x00000000       0xa0 fs/built-in.o
 .text.yaffs_bg_gc
                0x00000000       0x54 fs/built-in.o
 .text.yaffs_link_obj
                0x00000000       0x5c fs/built-in.o
 .text.yaffs_create_symlink
                0x00000000       0x44 fs/built-in.o
 .text.yaffs_create_special
                0x00000000       0x44 fs/built-in.o
 .text.nval_list
                0x00000000      0x11c fs/built-in.o
 .text.nval_get
                0x00000000       0xec fs/built-in.o
 .text.yaffs_pack_tags1
                0x00000000       0xb0 fs/built-in.o
 .text.yaffs_unpack_tags1
                0x00000000       0xac fs/built-in.o
 .text.yaffs_verify_link
                0x00000000        0x4 fs/built-in.o
 .text.yaffs_verify_symlink
                0x00000000        0x4 fs/built-in.o
 .text.yaffs_verify_special
                0x00000000        0x4 fs/built-in.o
 .text.yaffs2_checkpt_required
                0x00000000       0x4c fs/built-in.o
 .text.nandmtd_ReadChunkFromNAND
                0x00000000      0x15c fs/built-in.o
 .text.nandmtd_WriteChunkToNAND
                0x00000000      0x170 fs/built-in.o
 .rodata.CSWTCH.181
                0x00000000       0x18 fs/built-in.o
 .rodata.CSWTCH.175
                0x00000000       0x14 fs/built-in.o
 .rodata.CSWTCH.178
                0x00000000       0x30 fs/built-in.o
 .rodata.CSWTCH.184
                0x00000000        0xc fs/built-in.o
 .rodata.__FUNCTION__.5998
                0x00000000       0x14 fs/built-in.o
 .rodata.error_list
                0x00000000       0xa8 fs/built-in.o
 .rodata.all_ff
                0x00000000       0x14 fs/built-in.o
 .data          0x00000000        0x0 fs/built-in.o
 .bss           0x00000000        0x0 fs/built-in.o
 .text          0x00000000        0x0 lib/built-in.o
 .text.LzmaDec_InitDicAndState
                0x00000000       0x34 lib/built-in.o
 .text.LzmaDec_Init
                0x00000000       0x28 lib/built-in.o
 .text.LzmaDec_Free
                0x00000000       0x2c lib/built-in.o
 .text.LzmaDec_Allocate
                0x00000000       0xbc lib/built-in.o
 .text.LzmaDec_DecodeToBuf
                0x00000000      0x120 lib/built-in.o
 .text.inflateInit_
                0x00000000       0x10 lib/built-in.o
 .text.BZ2_bzlibVersion
                0x00000000        0xc lib/built-in.o
 .text.BZ2_hbAssignCodes
                0x00000000       0x44 lib/built-in.o
 .text.BZ2_hbMakeCodeLengths
                0x00000000      0x4ac lib/built-in.o
 .text.crc7     0x00000000       0x34 lib/built-in.o
 .text.crc8     0x00000000       0x60 lib/built-in.o
 .text.lmb_dump_all
                0x00000000        0x4 lib/built-in.o
 .text.lmb_is_reserved
                0x00000000       0x60 lib/built-in.o
 .text.arch_lmb_reserve
                0x00000000        0x4 lib/built-in.o
 .text.ldiv     0x00000000       0x50 lib/built-in.o
 .text.strcmp_compar
                0x00000000        0xc lib/built-in.o
 .text.rc4_encode
                0x00000000       0xf0 lib/built-in.o
 .text.__rb_erase_color
                0x00000000      0x268 lib/built-in.o
 .text.dummy_propagate
                0x00000000        0x4 lib/built-in.o
 .text.dummy_copy
                0x00000000        0x4 lib/built-in.o
 .text.dummy_rotate
                0x00000000        0x4 lib/built-in.o
 .text.__rb_insert_augmented
                0x00000000      0x17c lib/built-in.o
 .text.rb_prev  0x00000000       0x58 lib/built-in.o
 .text.rb_replace_node
                0x00000000       0x60 lib/built-in.o
 .text.fdt_next_subnode
                0x00000000       0x4c lib/built-in.o
 .text.fdt_first_subnode
                0x00000000       0x30 lib/built-in.o
 .text.fdt_stringlist_contains
                0x00000000       0x7c lib/built-in.o
 .text.fdt_node_check_compatible
                0x00000000       0x3c lib/built-in.o
 .text.fdt_node_offset_by_compatible
                0x00000000       0x70 lib/built-in.o
 .text.fdt_get_string_index
                0x00000000       0x5c lib/built-in.o
 .text.fdt_get_string
                0x00000000       0x14 lib/built-in.o
 .text.fdt_find_string
                0x00000000       0x84 lib/built-in.o
 .text.fdt_count_strings
                0x00000000       0x50 lib/built-in.o
 .text.fdt_node_offset_by_prop_value
                0x00000000       0xa0 lib/built-in.o
 .text.fdt_get_phandle
                0x00000000       0x84 lib/built-in.o
 .text.fdt_node_offset_by_phandle
                0x00000000       0x70 lib/built-in.o
 .text.fdt_get_max_phandle
                0x00000000       0x70 lib/built-in.o
 .text.fdt_get_path
                0x00000000      0x140 lib/built-in.o
 .text.fdt_get_alias
                0x00000000       0x28 lib/built-in.o
 .text.fdt_remove_unused_strings
                0x00000000       0xec lib/built-in.o
 .text.fdt_pack
                0x00000000       0xac lib/built-in.o
 .text.fdt_appendprop
                0x00000000       0xf8 lib/built-in.o
 .text.fdt_set_name
                0x00000000       0x84 lib/built-in.o
 .text._fdt_sw_check_header
                0x00000000       0x34 lib/built-in.o
 .text._fdt_grab_space
                0x00000000       0xb8 lib/built-in.o
 .text.fdt_end_node
                0x00000000       0x38 lib/built-in.o
 .text.fdt_add_reservemap_entry
                0x00000000      0x180 lib/built-in.o
 .text.fdt_finish_reservemap
                0x00000000       0x20 lib/built-in.o
 .text.fdt_resize
                0x00000000      0x108 lib/built-in.o
 .text.fdt_finish
                0x00000000      0x1e8 lib/built-in.o
 .text.fdt_begin_node
                0x00000000       0x60 lib/built-in.o
 .text.fdt_property_placeholder
                0x00000000      0x1d8 lib/built-in.o
 .text.fdt_property
                0x00000000       0x34 lib/built-in.o
 .text.fdt_create
                0x00000000       0x74 lib/built-in.o
 .text.fdt_find_regions
                0x00000000      0x408 lib/built-in.o
 .text.fdt_nop_node
                0x00000000       0x50 lib/built-in.o
 .text.fdt_nop_property
                0x00000000       0x3c lib/built-in.o
 .text.fdt_setprop_inplace_namelen_partial
                0x00000000       0x54 lib/built-in.o
 .text.fdt_setprop_inplace
                0x00000000       0x74 lib/built-in.o
 .text.fdt_create_empty_tree
                0x00000000       0x74 lib/built-in.o
 .text.fdt_add_region
                0x00000000       0xa8 lib/built-in.o
 .text.fdt_next_region
                0x00000000      0x5f0 lib/built-in.o
 .text.fdt_first_region
                0x00000000       0x58 lib/built-in.o
 .text.fdt_add_alias_regions
                0x00000000      0x1d0 lib/built-in.o
 .text.hmatch_r
                0x00000000       0x9c lib/built-in.o
 .text.print_freq
                0x00000000      0x1a4 lib/built-in.o
 .text.crc32_wd_buf
                0x00000000       0x4c lib/built-in.o
 .text.skip_spaces
                0x00000000       0x24 lib/built-in.o
 .text.membuff_purge
                0x00000000       0x10 lib/built-in.o
 .text.membuff_putraw
                0x00000000       0xd4 lib/built-in.o
 .text.membuff_putbyte
                0x00000000       0x2c lib/built-in.o
 .text.membuff_getraw
                0x00000000       0x88 lib/built-in.o
 .text.membuff_getbyte
                0x00000000       0x30 lib/built-in.o
 .text.membuff_peekbyte
                0x00000000       0x2c lib/built-in.o
 .text.membuff_isempty
                0x00000000       0x18 lib/built-in.o
 .text.membuff_avail
                0x00000000       0x58 lib/built-in.o
 .text.membuff_size
                0x00000000        0xc lib/built-in.o
 .text.membuff_free
                0x00000000       0x28 lib/built-in.o
 .text.membuff_readline
                0x00000000       0xb4 lib/built-in.o
 .text.membuff_init
                0x00000000       0x14 lib/built-in.o
 .text.membuff_uninit
                0x00000000       0x18 lib/built-in.o
 .text.membuff_dispose
                0x00000000       0x24 lib/built-in.o
 .text.membuff_new
                0x00000000       0x3c lib/built-in.o
 .text.membuff_extend_by
                0x00000000       0xbc lib/built-in.o
 .text.membuff_makecontig
                0x00000000       0x78 lib/built-in.o
 .text.membuff_put
                0x00000000       0x64 lib/built-in.o
 .text.membuff_get
                0x00000000       0x80 lib/built-in.o
 .text.strncasecmp
                0x00000000       0x7c lib/built-in.o
 .text.strcasecmp
                0x00000000        0x8 lib/built-in.o
 .text.strrchr  0x00000000       0x3c lib/built-in.o
 .text.strspn   0x00000000       0x44 lib/built-in.o
 .text.strpbrk  0x00000000       0x38 lib/built-in.o
 .text.strtok   0x00000000       0xcc lib/built-in.o
 .text.strswab  0x00000000       0x48 lib/built-in.o
 .text.memchr_inv
                0x00000000      0x128 lib/built-in.o
 .text.timer_init
                0x00000000        0x8 lib/built-in.o
 .text.get_ticks
                0x00000000       0x40 lib/built-in.o
 .text.__udelay
                0x00000000       0x90 lib/built-in.o
 .text.get_timer
                0x00000000       0x18 lib/built-in.o
 .text.rand     0x00000000       0x20 lib/built-in.o
 .text.srand    0x00000000       0x10 lib/built-in.o
 .text.__assert_fail
                0x00000000       0x14 lib/built-in.o
 .text.vsnprintf
                0x00000000        0x4 lib/built-in.o
 .text.print_grouped_ull
                0x00000000       0x8c lib/built-in.o
 .text.scnprintf
                0x00000000       0x28 lib/built-in.o
 .text.panic_str
                0x00000000        0x8 lib/built-in.o
 .rodata.z_errmsg
                0x00000000       0x28 lib/built-in.o
 .rodata.crc7_syndrome_table
                0x00000000      0x100 lib/built-in.o
 .rodata.names.4978
                0x00000000        0x4 lib/built-in.o
 .data          0x00000000        0x0 lib/built-in.o
 .data.cur      0x00000000        0x4 lib/built-in.o
 .data.current  0x00000000        0x4 lib/built-in.o
 .data.y        0x00000000        0x4 lib/built-in.o
 .bss           0x00000000        0x0 lib/built-in.o
 .bss.___strtok
                0x00000000        0x4 lib/built-in.o
 .text          0x00000000        0x0 net/built-in.o
 .text.add_ip_checksums
                0x00000000       0x4c net/built-in.o
 .text.eth_get_dev_by_index
                0x00000000       0x40 net/built-in.o
 .text.eth_is_active
                0x00000000       0x1c net/built-in.o
 .text.eth_unregister
                0x00000000       0x9c net/built-in.o
 .text.net_get_udp_handler
                0x00000000       0x10 net/built-in.o
 .text.net_set_arp_handler
                0x00000000       0x20 net/built-in.o
 .text.getenv_vlan
                0x00000000       0x10 net/built-in.o
 .text.vlan_to_string
                0x00000000       0x4c net/built-in.o
 .text.random_port
                0x00000000       0x1c net/built-in.o
 .data          0x00000000        0x0 net/built-in.o
 .data.tftp_timeout_ms
                0x00000000        0x4 net/built-in.o
 .bss           0x00000000        0x0 net/built-in.o
 .text          0x00000000        0x0 test/dm/built-in.o
 .data          0x00000000        0x0 test/dm/built-in.o
 .bss           0x00000000        0x0 test/dm/built-in.o
 .text          0x00000000        0x0 arch/arm/lib/eabi_compat.o
 .data          0x00000000        0x0 arch/arm/lib/eabi_compat.o
 .bss           0x00000000        0x0 arch/arm/lib/eabi_compat.o
 .text.__aeabi_unwind_cpp_pr0
                0x00000000        0x4 arch/arm/lib/eabi_compat.o
 .text.__aeabi_unwind_cpp_pr1
                0x00000000        0x4 arch/arm/lib/eabi_compat.o
 .text.__aeabi_memset
                0x00000000       0x10 arch/arm/lib/eabi_compat.o
 .text.__aeabi_memcpy
                0x00000000        0x4 arch/arm/lib/eabi_compat.o
 .text.raise    0x00000000       0x1c arch/arm/lib/eabi_compat.o
 .rodata.str1.1
                0x00000000       0x1b arch/arm/lib/eabi_compat.o
 .text          0x00000000        0x0 arch/arm/lib/lib.a(ashldi3.o)
 .data          0x00000000        0x0 arch/arm/lib/lib.a(ashldi3.o)
 .bss           0x00000000        0x0 arch/arm/lib/lib.a(ashldi3.o)
 .text          0x00000000        0x0 arch/arm/lib/lib.a(ashrdi3.o)
 .data          0x00000000        0x0 arch/arm/lib/lib.a(ashrdi3.o)
 .bss           0x00000000        0x0 arch/arm/lib/lib.a(ashrdi3.o)
 .text          0x00000000        0x0 arch/arm/lib/lib.a(lib1funcs.o)
 .data          0x00000000        0x0 arch/arm/lib/lib.a(lib1funcs.o)
 .bss           0x00000000        0x0 arch/arm/lib/lib.a(lib1funcs.o)
 .text.__umodsi3
                0x00000000       0xbc arch/arm/lib/lib.a(lib1funcs.o)
 .text.__modsi3
                0x00000000       0xd4 arch/arm/lib/lib.a(lib1funcs.o)
 .text          0x00000000        0x0 arch/arm/lib/lib.a(lshrdi3.o)
 .data          0x00000000        0x0 arch/arm/lib/lib.a(lshrdi3.o)
 .bss           0x00000000        0x0 arch/arm/lib/lib.a(lshrdi3.o)
 .text          0x00000000        0x0 arch/arm/lib/lib.a(div0.o)
 .data          0x00000000        0x0 arch/arm/lib/lib.a(div0.o)
 .bss           0x00000000        0x0 arch/arm/lib/lib.a(div0.o)

Memory Configuration

Name             Origin             Length             Attributes
*default*        0x00000000         0xffffffff

Linker script and memory map

Address of section .text set to 0x0
                0x00000000                . = 0x0
                0x00000000                . = ALIGN (0x4)

.text           0x00000000    0x66590
 *(.__image_copy_start)
 .__image_copy_start
                0x00000000        0x0 arch/arm/lib/built-in.o
                0x00000000                __image_copy_start
 *(.vectors)
 .vectors       0x00000000      0x300 arch/arm/lib/built-in.o
                0x00000000                _start
                0x00000020                _undefined_instruction
                0x00000024                _software_interrupt
                0x00000028                _prefetch_abort
                0x0000002c                _data_abort
                0x00000030                _not_used
                0x00000034                _irq
                0x00000038                _fiq
                0x00000040                IRQ_STACK_START_IN
 arch/arm/cpu/arm920t/start.o(.text*)
 .text          0x00000300       0x90 arch/arm/cpu/arm920t/start.o
                0x00000300                reset
                0x00000348                c_runtime_cpu_setup
 *(.text*)
 .text.enable_caches
                0x00000390       0x10 arch/arm/cpu/arm920t/built-in.o
                0x00000390                enable_caches
 .text.cleanup_before_linux
                0x000003a0       0x20 arch/arm/cpu/arm920t/built-in.o
                0x000003a0                cleanup_before_linux
 .text.print_cpuinfo
                0x000003c0       0x7c arch/arm/cpu/arm920t/built-in.o
                0x000003c0                print_cpuinfo
 .text.get_PLLCLK
                0x0000043c       0x88 arch/arm/cpu/arm920t/built-in.o
 .text.get_FCLK
                0x000004c4        0x8 arch/arm/cpu/arm920t/built-in.o
                0x000004c4                get_FCLK
 .text.get_HCLK
                0x000004cc       0x9c arch/arm/cpu/arm920t/built-in.o
                0x000004cc                get_HCLK
 .text.get_PCLK
                0x00000568       0x2c arch/arm/cpu/arm920t/built-in.o
                0x00000568                get_PCLK
 .text.__udelay
                0x00000594       0xc8 arch/arm/cpu/arm920t/built-in.o
                0x00000594                __udelay
 .text.get_timer_masked
                0x0000065c       0x68 arch/arm/cpu/arm920t/built-in.o
                0x0000065c                get_timer_masked
 .text.get_timer
                0x000006c4       0x14 arch/arm/cpu/arm920t/built-in.o
                0x000006c4                get_timer
 .text.get_ticks
                0x000006d8       0x50 arch/arm/cpu/arm920t/built-in.o
                0x000006d8                get_ticks
 .text.get_tbclk
                0x00000728        0x8 arch/arm/cpu/arm920t/built-in.o
                0x00000728                get_tbclk
 .text.reset_cpu
                0x00000730       0x28 arch/arm/cpu/arm920t/built-in.o
                0x00000730                reset_cpu
 .text.timer_init
                0x00000758       0x9c arch/arm/cpu/arm920t/built-in.o
                0x00000758                timer_init
 .text.__led_init
                0x000007f4       0x40 arch/arm/cpu/arm920t/built-in.o
                0x000007f4                __led_init
 .text.__led_set
                0x00000834       0x40 arch/arm/cpu/arm920t/built-in.o
                0x00000834                __led_set
 .text          0x00000874       0x90 arch/arm/lib/built-in.o
                0x00000874                _main
 .text.relocate_vectors
                0x00000904       0x90 arch/arm/lib/built-in.o
                0x00000904                relocate_vectors
                0x0000092c                relocate_code
 .text.arch_fixup_fdt
                0x00000994       0x3c arch/arm/lib/built-in.o
                0x00000994                arch_fixup_fdt
 .text.setup_board_tags
                0x000009d0        0x4 arch/arm/lib/built-in.o
                0x000009d0                setup_board_tags
 .text.boot_jump_vxworks
                0x000009d4       0x18 arch/arm/lib/built-in.o
                0x000009d4                boot_jump_vxworks
 .text.boot_prep_vxworks
                0x000009ec       0x58 arch/arm/lib/built-in.o
                0x000009ec                boot_prep_vxworks
 .text.boot_prep_linux
                0x00000a44      0x1cc arch/arm/lib/built-in.o
 .text.boot_jump_linux
                0x00000c10       0xc0 arch/arm/lib/built-in.o
 .text.do_bootm_linux
                0x00000cd0       0x64 arch/arm/lib/built-in.o
                0x00000cd0                do_bootm_linux
 .text.arch_lmb_reserve
                0x00000d34       0x24 arch/arm/lib/built-in.o
                0x00000d34                arch_lmb_reserve
 .text.arch_reserve_stacks
                0x00000d58       0x10 arch/arm/lib/built-in.o
                0x00000d58                arch_reserve_stacks
 .text.interrupt_init
                0x00000d68       0x1c arch/arm/lib/built-in.o
                0x00000d68                interrupt_init
 .text.enable_interrupts
                0x00000d84        0x4 arch/arm/lib/built-in.o
                0x00000d84                enable_interrupts
 .text.disable_interrupts
                0x00000d88        0x8 arch/arm/lib/built-in.o
                0x00000d88                disable_interrupts
 .text.show_regs
                0x00000d90      0x174 arch/arm/lib/built-in.o
                0x00000d90                show_regs
 .text.bad_mode
                0x00000f04       0x10 arch/arm/lib/built-in.o
                0x00000f04                bad_mode
 .text.do_irq   0x00000f14       0x28 arch/arm/lib/built-in.o
                0x00000f14                do_irq
 .text.do_fiq   0x00000f3c       0x28 arch/arm/lib/built-in.o
                0x00000f3c                do_fiq
 .text.do_not_used
                0x00000f64       0x28 arch/arm/lib/built-in.o
                0x00000f64                do_not_used
 .text.do_data_abort
                0x00000f8c       0x28 arch/arm/lib/built-in.o
                0x00000f8c                do_data_abort
 .text.do_prefetch_abort
                0x00000fb4       0x28 arch/arm/lib/built-in.o
                0x00000fb4                do_prefetch_abort
 .text.do_software_interrupt
                0x00000fdc       0x28 arch/arm/lib/built-in.o
                0x00000fdc                do_software_interrupt
 .text.do_undefined_instruction
                0x00001004       0x28 arch/arm/lib/built-in.o
                0x00001004                do_undefined_instruction
 .text.reset_misc
                0x0000102c        0x4 arch/arm/lib/built-in.o
                0x0000102c                reset_misc
 .text.do_reset
                0x00001030       0x34 arch/arm/lib/built-in.o
                0x00001030                do_reset
 .text.flush_dcache_range
                0x00001064        0x4 arch/arm/lib/built-in.o
                0x00001064                flush_dcache_range
 .text.flush_cache
                0x00001068        0x8 arch/arm/lib/built-in.o
                0x00001068                flush_cache
 .text.flush_dcache_all
                0x00001070        0xc arch/arm/lib/built-in.o
                0x00001070                flush_dcache_all
 .text.arm_init_before_mmu
                0x0000107c        0x4 arch/arm/lib/built-in.o
                0x0000107c                arm_init_before_mmu
 .text.arm_init_domains
                0x00001080        0x4 arch/arm/lib/built-in.o
                0x00001080                arm_init_domains
 .text.dram_bank_mmu_setup
                0x00001084       0x54 arch/arm/lib/built-in.o
                0x00001084                dram_bank_mmu_setup
 .text.cache_enable
                0x000010d8       0xc8 arch/arm/lib/built-in.o
 .text.icache_enable
                0x000011a0        0x8 arch/arm/lib/built-in.o
                0x000011a0                icache_enable
 .text.dcache_enable
                0x000011a8        0x8 arch/arm/lib/built-in.o
                0x000011a8                dcache_enable
 .text.dcache_status
                0x000011b0       0x10 arch/arm/lib/built-in.o
                0x000011b0                dcache_status
 .text.cache_disable
                0x000011c0       0x80 arch/arm/lib/built-in.o
 .text.dcache_disable
                0x00001240        0x8 arch/arm/lib/built-in.o
                0x00001240                dcache_disable
 .text.icache_disable
                0x00001248        0x8 arch/arm/lib/built-in.o
                0x00001248                icache_disable
 .text          0x00001250       0x60 board/samsung/JZ2440/built-in.o
                0x00001250                lowlevel_init
 .text.lcd_ctrl_init
                0x000012b0       0xac board/samsung/JZ2440/built-in.o
                0x000012b0                lcd_ctrl_init
 .text.lcd_enable
                0x0000135c       0x3c board/samsung/JZ2440/built-in.o
                0x0000135c                lcd_enable
 .text.board_early_init_f
                0x00001398      0x13c board/samsung/JZ2440/built-in.o
                0x00001398                board_early_init_f
 .text.board_init
                0x000014d4       0x24 board/samsung/JZ2440/built-in.o
                0x000014d4                board_init
 .text.dram_init
                0x000014f8       0x10 board/samsung/JZ2440/built-in.o
                0x000014f8                dram_init
 .text.board_eth_init
                0x00001508        0x4 board/samsung/JZ2440/built-in.o
                0x00001508                board_eth_init
 .text.lcd_show_board_info
                0x0000150c       0x58 board/samsung/JZ2440/built-in.o
                0x0000150c                lcd_show_board_info
 .text.do_go_exec
                0x00001564       0x1c cmd/built-in.o
                0x00001564                do_go_exec
 .text.do_go    0x00001580       0x70 cmd/built-in.o
 .text.do_imls  0x000015f0       0xd8 cmd/built-in.o
 .text.image_info
                0x000016c8       0xe4 cmd/built-in.o
 .text.do_iminfo
                0x000017ac       0x60 cmd/built-in.o
 .text.do_bootd
                0x0000180c       0x20 cmd/built-in.o
                0x0000180c                do_bootd
 .text.do_bootm
                0x0000182c      0x104 cmd/built-in.o
                0x0000182c                do_bootm
 .text.bootm_maybe_autostart
                0x00001930       0x74 cmd/built-in.o
                0x00001930                bootm_maybe_autostart
 .text.do_help  0x000019a4       0x48 cmd/built-in.o
 .text.do_version
                0x000019ec       0x38 cmd/built-in.o
 .text.source   0x00001a24      0x108 cmd/built-in.o
                0x00001a24                source
 .text.do_source
                0x00001b2c       0x44 cmd/built-in.o
 .text.bootefi_open_dp
                0x00001b70       0x14 cmd/built-in.o
 .text.do_bootefi_exec
                0x00001b84      0x2d8 cmd/built-in.o
 .text.do_bootefi
                0x00001e5c       0x88 cmd/built-in.o
 .text.efi_set_bootdev
                0x00001ee4      0x118 cmd/built-in.o
                0x00001ee4                efi_set_bootdev
 .text.mk_date  0x00001ffc      0x288 cmd/built-in.o
                0x00001ffc                mk_date
 .text.do_date  0x00002284      0x140 cmd/built-in.o
 .text.do_echo  0x000023c4       0xb4 cmd/built-in.o
 .text.valid_elf_image
                0x00002478       0x54 cmd/built-in.o
                0x00002478                valid_elf_image
 .text.load_elf_image_shdr
                0x000024cc       0x98 cmd/built-in.o
 .text.do_bootvx
                0x00002564      0x34c cmd/built-in.o
                0x00002564                do_bootvx
 .text.do_bootelf
                0x000028b0      0x194 cmd/built-in.o
                0x000028b0                do_bootelf
 .text.do_exit  0x00002a44       0x30 cmd/built-in.o
 .text.is_printable_string
                0x00002a74       0x94 cmd/built-in.o
 .text.fdt_valid
                0x00002b08       0xf8 cmd/built-in.o
 .text.print_data
                0x00002c00      0x184 cmd/built-in.o
 .text.set_working_fdt_addr
                0x00002d84       0x20 cmd/built-in.o
                0x00002d84                set_working_fdt_addr
 .text.do_fdt   0x00002da4     0x1094 cmd/built-in.o
 .text.flash_sect_roundb
                0x00003e38       0xe4 cmd/built-in.o
                0x00003e38                flash_sect_roundb
 .text.flash_fill_sect_ranges
                0x00003f1c      0x214 cmd/built-in.o
 .text.addr_spec
                0x00004130       0xc4 cmd/built-in.o
 .text.abbrev_spec
                0x000041f4      0x160 cmd/built-in.o
 .text.do_flinfo
                0x00004354       0xc4 cmd/built-in.o
 .text.flash_sect_protect
                0x00004418      0x14c cmd/built-in.o
                0x00004418                flash_sect_protect
 .text.do_protect
                0x00004564      0x3c4 cmd/built-in.o
 .text.flash_sect_erase
                0x00004928      0x12c cmd/built-in.o
                0x00004928                flash_sect_erase
 .text.do_flerase
                0x00004a54      0x2ac cmd/built-in.o
 .text.evalexp  0x00004d00       0x68 cmd/built-in.o
 .text.evalstr  0x00004d68       0x68 cmd/built-in.o
 .text.binary_test
                0x00004dd0      0x1c0 cmd/built-in.o
 .text.do_itest
                0x00004f90       0x94 cmd/built-in.o
 .text.bin_data_init
                0x00005024       0x2c cmd/built-in.o
 .text.bin_data_char
                0x00005050       0x28 cmd/built-in.o
 .text.load_serial_ymodem
                0x00005078      0x118 cmd/built-in.o
 .text.getcxmodem
                0x00005190       0x20 cmd/built-in.o
 .text.load_serial
                0x000051b0      0x22c cmd/built-in.o
 .text.do_load_serial
                0x000053dc       0xdc cmd/built-in.o
 .text.T.150    0x000054b8       0x58 cmd/built-in.o
 .text.do_load_serial_bin
                0x00005510      0x904 cmd/built-in.o
 .text.do_mem_loop
                0x00005e14       0xf4 cmd/built-in.o
 .text.do_mem_mw
                0x00005f08       0xb4 cmd/built-in.o
 .text.do_mem_base
                0x00005fbc       0x44 cmd/built-in.o
 .text.do_mem_cmp
                0x00006000      0x160 cmd/built-in.o
 .text.do_mem_crc
                0x00006160       0x3c cmd/built-in.o
 .text.do_mem_cp
                0x0000619c      0x11c cmd/built-in.o
 .text.mod_mem  0x000062b8      0x17c cmd/built-in.o
 .text.do_mem_nm
                0x00006434       0x20 cmd/built-in.o
 .text.do_mem_mm
                0x00006454       0x20 cmd/built-in.o
 .text.do_mem_md
                0x00006474       0xe0 cmd/built-in.o
 .text.mtd_part_info
                0x00006554       0x94 cmd/built-in.o
 .text.memsize_format
                0x000065e8       0xac cmd/built-in.o
 .text.index_partitions
                0x00006694       0xb8 cmd/built-in.o
 .text.current_save
                0x0000674c       0xbc cmd/built-in.o
 .text.part_sort_add
                0x00006808      0x164 cmd/built-in.o
 .text.part_delall
                0x0000696c       0x4c cmd/built-in.o
 .text.device_del
                0x000069b8       0x80 cmd/built-in.o
 .text.memsize_parse
                0x00006a38       0x7c cmd/built-in.o
 .text.get_mtd_info
                0x00006ab4       0x88 cmd/built-in.o
 .text.part_validate
                0x00006b3c      0x38c cmd/built-in.o
 .text.device_parse
                0x00006ec8      0x5c4 cmd/built-in.o
 .text.getenv_mtdparts
                0x0000748c       0x44 cmd/built-in.o
 .text.mtd_id_parse
                0x000074d0      0x10c cmd/built-in.o
                0x000074d0                mtd_id_parse
 .text.find_dev_and_part
                0x000075dc      0x1f0 cmd/built-in.o
                0x000075dc                find_dev_and_part
 .text.T.268    0x000077cc       0x64 cmd/built-in.o
 .text.mtd_devices_init
                0x00007830       0x2c cmd/built-in.o
 .text.mtdparts_init
                0x0000785c      0x69c cmd/built-in.o
                0x0000785c                mtdparts_init
 .text.do_chpart
                0x00007ef8       0xd0 cmd/built-in.o
 .text.T.267    0x00007fc8      0x30c cmd/built-in.o
 .text.do_mtdparts
                0x000082d4      0x640 cmd/built-in.o
 .text.print_status
                0x00008914       0x7c cmd/built-in.o
 .text.set_dev  0x00008990       0x74 cmd/built-in.o
 .text.nand_load_image
                0x00008a04      0x1e4 cmd/built-in.o
 .text.do_nandboot
                0x00008be8      0x240 cmd/built-in.o
 .text.nand_print_and_set_info
                0x00008e28       0xe0 cmd/built-in.o
 .text.do_nand  0x00008f08      0xf88 cmd/built-in.o
 .text.do_ping  0x00009e90       0x74 cmd/built-in.o
 .text.netboot_common
                0x00009f04      0x2a8 cmd/built-in.o
 .text.do_nfs   0x0000a1ac        0xc cmd/built-in.o
 .text.do_dhcp  0x0000a1b8        0xc cmd/built-in.o
 .text.do_bootp
                0x0000a1c4        0xc cmd/built-in.o
 .text.do_tftpb
                0x0000a1d0       0x40 cmd/built-in.o
                0x0000a1d0                do_tftpb
 .text.do_reginfo
                0x0000a210        0x8 cmd/built-in.o
 .text.do_false
                0x0000a218        0x8 cmd/built-in.o
 .text.do_true  0x0000a220        0x8 cmd/built-in.o
 .text.do_test  0x0000a228      0x34c cmd/built-in.o
 .text.ubi_find_volume
                0x0000a574       0x68 cmd/built-in.o
 .text.ubi_volume_continue_write
                0x0000a5dc       0x94 cmd/built-in.o
 .text.ubi_detach
                0x0000a670       0x70 cmd/built-in.o
                0x0000a670                ubi_detach
 .text.ubi_volume_read
                0x0000a6e0      0x1f0 cmd/built-in.o
                0x0000a6e0                ubi_volume_read
 .text.ubi_volume_begin_write
                0x0000a8d0       0x9c cmd/built-in.o
                0x0000a8d0                ubi_volume_begin_write
 .text.ubi_volume_write
                0x0000a96c        0x8 cmd/built-in.o
                0x0000a96c                ubi_volume_write
 .text.ubi_part
                0x0000a974      0x210 cmd/built-in.o
                0x0000a974                ubi_part
 .text.do_ubi   0x0000ab84      0x8b0 cmd/built-in.o
 .text.ubifs_is_mounted
                0x0000b434       0x10 cmd/built-in.o
                0x0000b434                ubifs_is_mounted
 .text.do_ubifs_load
                0x0000b444       0xc8 cmd/built-in.o
 .text.do_ubifs_ls
                0x0000b50c       0x64 cmd/built-in.o
 .text.do_ubifs_mount
                0x0000b570       0x5c cmd/built-in.o
 .text.cmd_ubifs_umount
                0x0000b5cc       0x28 cmd/built-in.o
                0x0000b5cc                cmd_ubifs_umount
 .text.do_ubifs_umount
                0x0000b5f4       0x40 cmd/built-in.o
 .text.usb_get_class_desc
                0x0000b634       0xa0 cmd/built-in.o
 .text.usb_display_class_sub
                0x0000b6d4      0x17c cmd/built-in.o
 .text.do_usb_start
                0x0000b850       0x20 cmd/built-in.o
 .text.do_usb_stop_keyboard
                0x0000b870       0x24 cmd/built-in.o
 .text.usb_display_desc
                0x0000b894      0x130 cmd/built-in.o
 .text.usb_show_tree_graph
                0x0000b9c4      0x224 cmd/built-in.o
 .text.usb_display_string
                0x0000bbe8       0x44 cmd/built-in.o
 .text.usb_display_config
                0x0000bc2c      0x228 cmd/built-in.o
 .text.usb_show_tree
                0x0000be54       0x58 cmd/built-in.o
                0x0000be54                usb_show_tree
 .text.do_usb   0x0000beac      0x438 cmd/built-in.o
 .text.do_imgextract
                0x0000c2e4      0x324 cmd/built-in.o
 .text.do_ymv   0x0000c608       0x34 cmd/built-in.o
                0x0000c608                do_ymv
 .text.do_yrm   0x0000c63c       0x30 cmd/built-in.o
                0x0000c63c                do_yrm
 .text.do_yrmdir
                0x0000c66c       0x30 cmd/built-in.o
                0x0000c66c                do_yrmdir
 .text.do_ymkdir
                0x0000c69c       0x30 cmd/built-in.o
                0x0000c69c                do_ymkdir
 .text.do_ywrm  0x0000c6cc       0x64 cmd/built-in.o
                0x0000c6cc                do_ywrm
 .text.do_yrdm  0x0000c730       0x48 cmd/built-in.o
                0x0000c730                do_yrdm
 .text.do_ywr   0x0000c778       0x8c cmd/built-in.o
                0x0000c778                do_ywr
 .text.do_yrd   0x0000c804       0x50 cmd/built-in.o
                0x0000c804                do_yrd
 .text.do_yls   0x0000c854       0x6c cmd/built-in.o
                0x0000c854                do_yls
 .text.do_yumount
                0x0000c8c0       0x44 cmd/built-in.o
                0x0000c8c0                do_yumount
 .text.do_ymount
                0x0000c904       0x44 cmd/built-in.o
                0x0000c904                do_ymount
 .text.do_ydevconfig
                0x0000c948       0x7c cmd/built-in.o
                0x0000c948                do_ydevconfig
 .text.do_ydevls
                0x0000c9c4       0x10 cmd/built-in.o
                0x0000c9c4                do_ydevls
 .text.do_ytrace
                0x0000c9d4       0x38 cmd/built-in.o
                0x0000c9d4                do_ytrace
 .text.get_env_id
                0x0000ca0c       0x10 cmd/built-in.o
                0x0000ca0c                get_env_id
 .text.do_env_delete
                0x0000ca1c       0xa0 cmd/built-in.o
 .text.do_env_exists
                0x0000cabc       0x60 cmd/built-in.o
 .text._do_env_set
                0x0000cb1c      0x1cc cmd/built-in.o
 .text.do_env_set
                0x0000cce8       0x24 cmd/built-in.o
 .text.setenv   0x0000cd0c       0x68 cmd/built-in.o
                0x0000cd0c                setenv
 .text.env_print
                0x0000cd74       0xd0 cmd/built-in.o
 .text.do_env_print
                0x0000ce44       0xd0 cmd/built-in.o
 .text.do_env   0x0000cf14       0x5c cmd/built-in.o
 .text.do_env_import
                0x0000cf70      0x280 cmd/built-in.o
 .text.setenv_hex
                0x0000d1f0       0x38 cmd/built-in.o
                0x0000d1f0                setenv_hex
 .text.do_env_export
                0x0000d228      0x268 cmd/built-in.o
 .text.do_env_default
                0x0000d490       0xa8 cmd/built-in.o
 .text.do_env_save
                0x0000d538       0x2c cmd/built-in.o
 .text.envmatch
                0x0000d564       0x64 cmd/built-in.o
                0x0000d564                envmatch
 .text.getenv_f
                0x0000d5c8       0xc0 cmd/built-in.o
                0x0000d5c8                getenv_f
 .text.getenv   0x0000d688       0x80 cmd/built-in.o
                0x0000d688                getenv
 .text.do_env_edit
                0x0000d708       0xd4 cmd/built-in.o
 .text.getenv_ulong
                0x0000d7dc       0x30 cmd/built-in.o
                0x0000d7dc                getenv_ulong
 .text.getenv_hex
                0x0000d80c       0x34 cmd/built-in.o
                0x0000d80c                getenv_hex
 .text.setenv_ulong
                0x0000d840       0x20 cmd/built-in.o
                0x0000d840                setenv_ulong
 .text.board_init_f_alloc_reserve
                0x0000d860        0xc common/built-in.o
                0x0000d860                board_init_f_alloc_reserve
 .text.show_boot_progress
                0x0000d86c        0x8 common/built-in.o
                0x0000d86c                show_boot_progress
 .text.board_init_f_init_reserve
                0x0000d874        0xc common/built-in.o
                0x0000d874                board_init_f_init_reserve
 .text.main_loop
                0x0000d880       0x28 common/built-in.o
                0x0000d880                main_loop
 .text.dummy    0x0000d8a8        0x4 common/built-in.o
 .text.get_version
                0x0000d8ac        0x8 common/built-in.o
                0x0000d8ac                get_version
 .text.jumptable_init
                0x0000d8b4      0x23c common/built-in.o
                0x0000d8b4                jumptable_init
 .text.hash_command
                0x0000daf0       0xb4 common/built-in.o
                0x0000daf0                hash_command
 .text.static_get
                0x0000dba4       0x1c common/built-in.o
 .text.static_peek
                0x0000dbc0        0xc common/built-in.o
 .text.file_peek
                0x0000dbcc        0xc common/built-in.o
 .text.do_showvar
                0x0000dbd8       0xec common/built-in.o
 .text.u_boot_hush_start
                0x0000dcc4       0x50 common/built-in.o
                0x0000dcc4                u_boot_hush_start
 .text.xmalloc  0x0000dd14       0x20 common/built-in.o
 .text.file_get
                0x0000dd34      0x1f4 common/built-in.o
 .text.free_pipe_list
                0x0000df28       0xec common/built-in.o
 .text.xrealloc
                0x0000e014       0x20 common/built-in.o
 .text.done_command
                0x0000e034       0x8c common/built-in.o
 .text.initialize_context
                0x0000e0c0       0x50 common/built-in.o
 .text.done_pipe
                0x0000e110       0x60 common/built-in.o
 .text.b_addchr
                0x0000e170       0x70 common/built-in.o
 .text.done_word
                0x0000e1e0      0x30c common/built-in.o
 .text.b_addqchr
                0x0000e4ec       0x4c common/built-in.o
 .text.get_local_var
                0x0000e538       0x98 common/built-in.o
                0x0000e538                get_local_var
 .text.set_local_var
                0x0000e5d0      0x1bc common/built-in.o
                0x0000e5d0                set_local_var
 .text.insert_var_value_sub
                0x0000e78c      0x2c4 common/built-in.o
 .text.run_list_real
                0x0000ea50      0x844 common/built-in.o
 .text.parse_stream_outer
                0x0000f294      0x79c common/built-in.o
 .text.parse_file_outer
                0x0000fa30       0x44 common/built-in.o
                0x0000fa30                parse_file_outer
 .text.parse_string_outer
                0x0000fa74       0xf0 common/built-in.o
                0x0000fa74                parse_string_outer
 .text.autoboot_command
                0x0000fb64       0xfc common/built-in.o
                0x0000fb64                autoboot_command
 .text.bootdelay_process
                0x0000fc60       0x50 common/built-in.o
                0x0000fc60                bootdelay_process
 .text.bootretry_tstc_timeout
                0x0000fcb0       0x60 common/built-in.o
                0x0000fcb0                bootretry_tstc_timeout
 .text.bootretry_reset_cmd_timeout
                0x0000fd10       0x44 common/built-in.o
                0x0000fd10                bootretry_reset_cmd_timeout
 .text.bootretry_init_cmd_timeout
                0x0000fd54       0x3c common/built-in.o
                0x0000fd54                bootretry_init_cmd_timeout
 .text.coloured_LED_init
                0x0000fd90        0x4 common/built-in.o
                0x0000fd90                coloured_LED_init
 .text.red_led_on
                0x0000fd94        0x4 common/built-in.o
                0x0000fd94                red_led_on
 .text.board_add_ram_info
                0x0000fd98        0x4 common/built-in.o
                0x0000fd98                board_add_ram_info
 .text.display_text_info
                0x0000fd9c        0x8 common/built-in.o
 .text.setup_mon_len
                0x0000fda4       0x20 common/built-in.o
 .text.arch_cpu_init
                0x0000fdc4        0x8 common/built-in.o
                0x0000fdc4                arch_cpu_init
 .text.board_get_usable_ram_top
                0x0000fdcc       0x14 common/built-in.o
                0x0000fdcc                board_get_usable_ram_top
 .text.board_reserve_ram_top
                0x0000fde0        0x4 common/built-in.o
                0x0000fde0                board_reserve_ram_top
 .text.reserve_round_4k
                0x0000fde4       0x18 common/built-in.o
 .text.reserve_mmu
                0x0000fdfc       0x38 common/built-in.o
 .text.reserve_trace
                0x0000fe34        0x8 common/built-in.o
 .text.reserve_uboot
                0x0000fe3c       0x30 common/built-in.o
 .text.reserve_malloc
                0x0000fe6c       0x14 common/built-in.o
 .text.setup_machine
                0x0000fe80        0x8 common/built-in.o
 .text.reserve_global_data
                0x0000fe88       0x1c common/built-in.o
 .text.reserve_fdt
                0x0000fea4       0x60 common/built-in.o
 .text.reserve_stacks
                0x0000ff04       0x1c common/built-in.o
 .text.display_new_sp
                0x0000ff20        0x8 common/built-in.o
 .text.initf_console_record
                0x0000ff28        0x8 common/built-in.o
 .text.initf_dm
                0x0000ff30        0x8 common/built-in.o
 .text.reserve_arch
                0x0000ff38        0x8 common/built-in.o
                0x0000ff38                reserve_arch
 .text.arch_cpu_init_dm
                0x0000ff40        0x8 common/built-in.o
                0x0000ff40                arch_cpu_init_dm
 .text.board_init_f
                0x0000ff48       0x28 common/built-in.o
                0x0000ff48                board_init_f
 .text.setup_reloc
                0x0000ff70       0x30 common/built-in.o
 .text.reloc_fdt
                0x0000ffa0       0x3c common/built-in.o
 .text.show_dram_config
                0x0000ffdc       0x38 common/built-in.o
 .text.reserve_board
                0x00010014       0x38 common/built-in.o
 .text.reserve_lcd
                0x0001004c       0x24 common/built-in.o
 .text.setup_dest_addr
                0x00010070       0x50 common/built-in.o
 .text.dram_init_banksize
                0x000100c0       0x20 common/built-in.o
                0x000100c0                dram_init_banksize
 .text.setup_dram_config
                0x000100e0       0x10 common/built-in.o
 .text.announce_dram_init
                0x000100f0       0x18 common/built-in.o
 .text.init_baud_rate
                0x00010108       0x2c common/built-in.o
 .text.mark_bootstage
                0x00010134       0x14 common/built-in.o
 .text.bootstage_relocate
                0x00010148        0x8 common/built-in.o
 .text.board_flash_wp_on
                0x00010150        0x8 common/built-in.o
                0x00010150                board_flash_wp_on
 .text.cpu_secondary_init_r
                0x00010158        0x4 common/built-in.o
                0x00010158                cpu_secondary_init_r
 .text.initr_secondary_cpu
                0x0001015c       0x10 common/built-in.o
 .text.initr_trace
                0x0001016c        0x8 common/built-in.o
 .text.initr_reloc
                0x00010174       0x18 common/built-in.o
 .text.initr_barrier
                0x0001018c        0x8 common/built-in.o
 .text.initr_console_record
                0x00010194        0x8 common/built-in.o
 .text.power_init_board
                0x0001019c        0x8 common/built-in.o
                0x0001019c                power_init_board
 .text.initr_announce
                0x000101a4        0x8 common/built-in.o
 .text.run_main_loop
                0x000101ac        0xc common/built-in.o
 .text.initr_net
                0x000101b8       0x1c common/built-in.o
 .text.initr_ethaddr
                0x000101d4       0x20 common/built-in.o
 .text.initr_status_led
                0x000101f4       0x18 common/built-in.o
 .text.initr_enable_interrupts
                0x0001020c       0x10 common/built-in.o
 .text.initr_jumptable
                0x0001021c       0x10 common/built-in.o
 .text.initr_env
                0x0001022c       0x30 common/built-in.o
 .text.initr_nand
                0x0001025c       0x1c common/built-in.o
 .text.initr_flash
                0x00010278       0x7c common/built-in.o
 .text.initr_serial
                0x000102f4       0x10 common/built-in.o
 .text.initr_bootstage
                0x00010304       0x14 common/built-in.o
 .text.initr_dm
                0x00010318       0x14 common/built-in.o
 .text.initr_malloc
                0x0001032c       0x1c common/built-in.o
 .text.initr_reloc_global_data
                0x00010348       0x38 common/built-in.o
 .text.initr_caches
                0x00010380       0x10 common/built-in.o
 .text.board_init_r
                0x00010390       0x10 common/built-in.o
                0x00010390                board_init_r
 .text.bootm_disable_interrupts
                0x000103a0       0x18 common/built-in.o
                0x000103a0                bootm_disable_interrupts
 .text.bootm_decomp_image
                0x000103b8      0x1e0 common/built-in.o
                0x000103b8                bootm_decomp_image
 .text.bootm_find_images
                0x00010598       0xa8 common/built-in.o
                0x00010598                bootm_find_images
 .text.do_bootm_states
                0x00010640      0x790 common/built-in.o
                0x00010640                do_bootm_states
 .text.arch_preboot_os
                0x00010dd0        0x4 common/built-in.o
                0x00010dd0                arch_preboot_os
 .text.bootm_os_get_boot_func
                0x00010dd4       0x10 common/built-in.o
                0x00010dd4                bootm_os_get_boot_func
 .text.copy_args
                0x00010de4       0x54 common/built-in.o
 .text.do_bootm_plan9
                0x00010e38       0xa0 common/built-in.o
 .text.do_bootm_rtems
                0x00010ed8       0x40 common/built-in.o
 .text.boot_selected_os
                0x00010f18       0x54 common/built-in.o
                0x00010f18                boot_selected_os
 .text.do_bootm_standalone
                0x00010f6c       0x64 common/built-in.o
 .text.do_bootm_qnxelf
                0x00010fd0       0x5c common/built-in.o
 .text.do_bootm_netbsd
                0x0001102c       0xf4 common/built-in.o
 .text.do_bootvx_fdt
                0x00011120      0x110 common/built-in.o
                0x00011120                do_bootvx_fdt
 .text.do_bootm_vxworks
                0x00011230       0x20 common/built-in.o
 .text.regex_callback
                0x00011250      0x134 common/built-in.o
 .text.env_attr_walk
                0x00011384      0x118 common/built-in.o
                0x00011384                env_attr_walk
 .text.env_attr_lookup
                0x0001149c       0x84 common/built-in.o
                0x0001149c                env_attr_lookup
 .text.clear_callback
                0x00011520       0x10 common/built-in.o
 .text.on_callbacks
                0x00011530       0x50 common/built-in.o
 .text.find_env_callback
                0x00011580       0x5c common/built-in.o
 .text.set_callback
                0x000115dc       0x98 common/built-in.o
 .text.env_callback_init
                0x00011674       0xc8 common/built-in.o
                0x00011674                env_callback_init
 .text.skip_num
                0x0001173c       0x78 common/built-in.o
 .text.eth_validate_ethaddr_str
                0x000117b4       0x94 common/built-in.o
                0x000117b4                eth_validate_ethaddr_str
 .text.clear_flags
                0x00011848       0x10 common/built-in.o
 .text.on_flags
                0x00011858       0x50 common/built-in.o
 .text.env_flags_validate
                0x000118a8      0x2b8 common/built-in.o
                0x000118a8                env_flags_validate
 .text.env_flags_parse_varaccess
                0x00011b60       0x50 common/built-in.o
                0x00011b60                env_flags_parse_varaccess
 .text.env_flags_parse_vartype
                0x00011bb0       0x4c common/built-in.o
                0x00011bb0                env_flags_parse_vartype
 .text.env_parse_flags_to_bin
                0x00011bfc       0x2c common/built-in.o
 .text.set_flags
                0x00011c28       0x94 common/built-in.o
 .text.env_flags_init
                0x00011cbc       0xbc common/built-in.o
                0x00011cbc                env_flags_init
 .text.env_relocate_spec
                0x00011d78        0xc common/built-in.o
                0x00011d78                env_relocate_spec
 .text.saveenv  0x00011d84       0xb8 common/built-in.o
                0x00011d84                saveenv
 .text.env_init
                0x00011e3c       0x64 common/built-in.o
                0x00011e3c                env_init
 .text.of_bus_default_map
                0x00011ea0      0x17c common/built-in.o
 .text.of_bus_default_count_cells
                0x0001201c       0x6c common/built-in.o
                0x0001201c                of_bus_default_count_cells
 .text.of_bus_default_translate
                0x00012088       0xcc common/built-in.o
 .text.fdt_shrink_to_minimum
                0x00012154      0x118 common/built-in.o
                0x00012154                fdt_shrink_to_minimum
 .text.fdt_root
                0x0001226c       0x8c common/built-in.o
                0x0001226c                fdt_root
 .text.fdt_find_and_setprop
                0x000122f8       0x88 common/built-in.o
                0x000122f8                fdt_find_and_setprop
 .text.do_fixup_by_path
                0x00012380       0x54 common/built-in.o
                0x00012380                do_fixup_by_path
 .text.fdt_fixup_ethernet
                0x000123d4      0x1b8 common/built-in.o
                0x000123d4                fdt_fixup_ethernet
 .text.fdt_find_or_add_subnode
                0x0001258c       0x68 common/built-in.o
                0x0001258c                fdt_find_or_add_subnode
 .text.fdt_fixup_memory_banks
                0x000125f4      0x23c common/built-in.o
                0x000125f4                fdt_fixup_memory_banks
 .text.fdt_fixup_memory
                0x00012830       0x20 common/built-in.o
                0x00012830                fdt_fixup_memory
 .text.fdt_chosen
                0x00012850       0xa4 common/built-in.o
                0x00012850                fdt_chosen
 .text.fdt_initrd
                0x000128f4      0x248 common/built-in.o
                0x000128f4                fdt_initrd
 .text.fdt_translate_address
                0x00012b3c      0x304 common/built-in.o
                0x00012b3c                fdt_translate_address
 .text.usb_maxpacket
                0x00012e40       0x24 common/built-in.o
                0x00012e40                usb_maxpacket
 .text.usb_set_maxpacket_ep
                0x00012e64       0x70 common/built-in.o
 .text.usb_get_dev_index
                0x00012ed4       0x24 common/built-in.o
                0x00012ed4                usb_get_dev_index
 .text.usb_alloc_device
                0x00012ef8        0x8 common/built-in.o
                0x00012ef8                usb_alloc_device
 .text.usb_device_has_child_on_port
                0x00012f00       0x14 common/built-in.o
                0x00012f00                usb_device_has_child_on_port
 .text.usb_alloc_new_device
                0x00012f14       0xa8 common/built-in.o
                0x00012f14                usb_alloc_new_device
 .text.usb_free_device
                0x00012fbc       0x48 common/built-in.o
                0x00012fbc                usb_free_device
 .text.usb_control_msg
                0x00013004       0xf4 common/built-in.o
                0x00013004                usb_control_msg
 .text.usb_get_descriptor
                0x000130f8       0x64 common/built-in.o
 .text.get_descriptor_len
                0x0001315c       0x94 common/built-in.o
 .text.usb_get_configuration_no
                0x000131f0       0x2c common/built-in.o
                0x000131f0                usb_get_configuration_no
 .text.usb_get_configuration_len
                0x0001321c       0x7c common/built-in.o
                0x0001321c                usb_get_configuration_len
 .text.usb_get_string
                0x00013298       0x74 common/built-in.o
 .text.usb_string_sub
                0x0001330c      0x100 common/built-in.o
 .text.usb_string
                0x0001340c      0x10c common/built-in.o
                0x0001340c                usb_string
 .text.usb_set_idle
                0x00013518       0x5c common/built-in.o
                0x00013518                usb_set_idle
 .text.usb_set_protocol
                0x00013574       0x58 common/built-in.o
                0x00013574                usb_set_protocol
 .text.usb_submit_int_msg
                0x000135cc        0x4 common/built-in.o
                0x000135cc                usb_submit_int_msg
 .text.usb_stop
                0x000135d0       0x58 common/built-in.o
                0x000135d0                usb_stop
 .text.usb_select_config
                0x00013628      0x498 common/built-in.o
                0x00013628                usb_select_config
 .text.usb_setup_device
                0x00013ac0      0x174 common/built-in.o
                0x00013ac0                usb_setup_device
 .text.usb_new_device
                0x00013c34       0x30 common/built-in.o
                0x00013c34                usb_new_device
 .text.usb_init
                0x00013c64      0x13c common/built-in.o
                0x00013c64                usb_init
 .text.usb_hub_reset_devices
                0x00013da0        0x4 common/built-in.o
                0x00013da0                usb_hub_reset_devices
 .text.usb_hub_reset
                0x00013da4       0x24 common/built-in.o
                0x00013da4                usb_hub_reset
 .text.usb_set_port_feature
                0x00013dc8       0x58 common/built-in.o
 .text.usb_clear_port_feature
                0x00013e20       0x58 common/built-in.o
 .text.usb_get_port_status
                0x00013e78       0x54 common/built-in.o
                0x00013e78                usb_get_port_status
 .text.legacy_hub_port_reset
                0x00013ecc       0xac common/built-in.o
                0x00013ecc                legacy_hub_port_reset
 .text.usb_hub_port_connect_change
                0x00013f78      0x15c common/built-in.o
                0x00013f78                usb_hub_port_connect_change
 .text.usb_hub_configure
                0x000140d4      0x534 common/built-in.o
 .text.usb_hub_probe
                0x00014608       0x5c common/built-in.o
                0x00014608                usb_hub_probe
 .text.flash_protect
                0x00014664       0xfc common/built-in.o
                0x00014664                flash_protect
 .text.addr2info
                0x00014760       0x70 common/built-in.o
                0x00014760                addr2info
 .text.flash_perror
                0x000147d0       0xd8 common/built-in.o
                0x000147d0                flash_perror
 .text.flash_write
                0x000148a8      0x208 common/built-in.o
                0x000148a8                flash_write
 .text.lcd_get_size
                0x00014ab0       0x34 common/built-in.o
                0x00014ab0                lcd_get_size
 .text.lcd_setmem
                0x00014ae4       0x30 common/built-in.o
                0x00014ae4                lcd_setmem
 .text.lcd_getfgcolor
                0x00014b14       0x10 common/built-in.o
                0x00014b14                lcd_getfgcolor
 .text.lcd_getbgcolor
                0x00014b24       0x10 common/built-in.o
                0x00014b24                lcd_getbgcolor
 .text.lcd_stub_puts
                0x00014b34        0x8 common/built-in.o
 .text.lcd_stub_putc
                0x00014b3c        0x8 common/built-in.o
 .text.lcd_sync
                0x00014b44       0x3c common/built-in.o
                0x00014b44                lcd_sync
 .text.lcd_clear
                0x00014b80       0xec common/built-in.o
                0x00014b80                lcd_clear
 .text.do_lcd_clear
                0x00014c6c       0x10 common/built-in.o
 .text.drv_lcd_init
                0x00014c7c       0xcc common/built-in.o
                0x00014c7c                drv_lcd_init
 .text.lcd_set_col
                0x00014d48       0x10 common/built-in.o
                0x00014d48                lcd_set_col
 .text.lcd_set_row
                0x00014d58       0x10 common/built-in.o
                0x00014d58                lcd_set_row
 .text.console_setrow0
                0x00014d68       0x30 common/built-in.o
 .text.console_moverow0
                0x00014d98       0x44 common/built-in.o
 .text.console_calc_rowcol
                0x00014ddc       0x14 common/built-in.o
                0x00014ddc                console_calc_rowcol
 .text.lcd_init_console_rot
                0x00014df0        0x4 common/built-in.o
                0x00014df0                lcd_init_console_rot
 .text.do_lcd_setcursor
                0x00014df4       0x94 common/built-in.o
 .text.lcd_putc
                0x00014e88      0x2c0 common/built-in.o
                0x00014e88                lcd_putc
 .text.lcd_puts
                0x00015148       0x44 common/built-in.o
                0x00015148                lcd_puts
 .text.do_lcd_puts
                0x0001518c       0x20 common/built-in.o
 .text.lcd_printf
                0x000151ac       0x40 common/built-in.o
                0x000151ac                lcd_printf
 .text.lcd_init_console
                0x000151ec       0x7c common/built-in.o
                0x000151ec                lcd_init_console
 .text.lcd_putc_xy0
                0x00015268       0x90 common/built-in.o
 .text.usb_kbd_translate
                0x000152f8      0x164 common/built-in.o
 .text.usb_kbd_deregister
                0x0001545c        0x8 common/built-in.o
                0x0001545c                usb_kbd_deregister
 .text.usb_kbd_service_key
                0x00015464       0x70 common/built-in.o
 .text.usb_kbd_irq
                0x000154d4      0x144 common/built-in.o
 .text.usb_kbd_testc
                0x00015618       0x6c common/built-in.o
 .text.usb_kbd_getc
                0x00015684       0x4c common/built-in.o
 .text.drv_usb_kbd_init
                0x000156d0      0x234 common/built-in.o
                0x000156d0                drv_usb_kbd_init
 .text.env_get_char_spec
                0x00015904        0xc common/built-in.o
                0x00015904                env_get_char_spec
 .text.env_get_char
                0x00015910       0x4c common/built-in.o
                0x00015910                env_get_char
 .text.env_export
                0x0001595c       0xa4 common/built-in.o
                0x0001595c                env_export
 .text.set_default_vars
                0x00015a00       0x40 common/built-in.o
                0x00015a00                set_default_vars
 .text.set_default_env
                0x00015a40       0xd0 common/built-in.o
                0x00015a40                set_default_env
 .text.env_relocate
                0x00015b10       0x30 common/built-in.o
                0x00015b10                env_relocate
 .text.env_import
                0x00015b40       0xe4 common/built-in.o
                0x00015b40                env_import
 .text.getenv_default
                0x00015c24       0x30 common/built-in.o
                0x00015c24                getenv_default
 .text.getenv_yesno
                0x00015c54       0x4c common/built-in.o
                0x00015c54                getenv_yesno
 .text.console_setfile
                0x00015ca0       0xbc common/built-in.o
 .text.fgetc    0x00015d5c       0x2c common/built-in.o
                0x00015d5c                fgetc
 .text.ftstc    0x00015d88       0x2c common/built-in.o
                0x00015d88                ftstc
 .text.fputc    0x00015db4       0x28 common/built-in.o
                0x00015db4                fputc
 .text.fputs    0x00015ddc       0x28 common/built-in.o
                0x00015ddc                fputs
 .text.had_ctrlc
                0x00015e04       0x10 common/built-in.o
                0x00015e04                had_ctrlc
 .text.clear_ctrlc
                0x00015e14       0x14 common/built-in.o
                0x00015e14                clear_ctrlc
 .text.console_init_f
                0x00015e28       0x10 common/built-in.o
                0x00015e28                console_init_f
 .text.search_device
                0x00015e38       0x28 common/built-in.o
                0x00015e38                search_device
 .text.console_assign
                0x00015e60       0x40 common/built-in.o
                0x00015e60                console_assign
 .text.on_console
                0x00015ea0       0xb8 common/built-in.o
 .text.puts     0x00015f58       0x28 common/built-in.o
                0x00015f58                puts
 .text.stdio_print_current_devices
                0x00015f80       0xb8 common/built-in.o
                0x00015f80                stdio_print_current_devices
 .text.console_init_r
                0x00016038       0xdc common/built-in.o
                0x00016038                console_init_r
 .text.putc     0x00016114       0x28 common/built-in.o
                0x00016114                putc
 .text.tstc     0x0001613c       0x24 common/built-in.o
                0x0001613c                tstc
 .text.getc     0x00016160       0x24 common/built-in.o
                0x00016160                getc
 .text.confirm_yesno
                0x00016184       0xd0 common/built-in.o
                0x00016184                confirm_yesno
 .text.ctrlc    0x00016254       0x58 common/built-in.o
                0x00016254                ctrlc
 .text.initf_malloc
                0x000162ac        0x8 common/built-in.o
                0x000162ac                initf_malloc
 .text.mem_malloc_init
                0x000162b4       0x3c common/built-in.o
                0x000162b4                mem_malloc_init
 .text.sbrk     0x000162f0       0x68 common/built-in.o
                0x000162f0                sbrk
 .text.malloc_trim
                0x00016358       0xd4 common/built-in.o
                0x00016358                malloc_trim
 .text.free     0x0001642c      0x22c common/built-in.o
                0x0001642c                free
 .text.malloc   0x00016658      0x618 common/built-in.o
                0x00016658                malloc
 .text.memalign
                0x00016c70      0x17c common/built-in.o
                0x00016c70                memalign
 .text.calloc   0x00016dec       0xe0 common/built-in.o
                0x00016dec                calloc
 .text.realloc  0x00016ecc      0x470 common/built-in.o
                0x00016ecc                realloc
 .text.image_multi_count
                0x0001733c       0x24 common/built-in.o
                0x0001733c                image_multi_count
 .text.genimg_get_os_name
                0x00017360       0x40 common/built-in.o
                0x00017360                genimg_get_os_name
 .text.genimg_get_type_name
                0x000173a0       0x40 common/built-in.o
                0x000173a0                genimg_get_type_name
 .text.genimg_get_comp_name
                0x000173e0       0x40 common/built-in.o
                0x000173e0                genimg_get_comp_name
 .text.genimg_get_image
                0x00017420        0x4 common/built-in.o
                0x00017420                genimg_get_image
 .text.genimg_has_config
                0x00017424        0x8 common/built-in.o
                0x00017424                genimg_has_config
 .text.boot_get_setup
                0x0001742c        0x8 common/built-in.o
                0x0001742c                boot_get_setup
 .text.on_loadaddr
                0x00017434       0x38 common/built-in.o
 .text.genimg_get_kernel_addr_fit
                0x0001746c       0x24 common/built-in.o
                0x0001746c                genimg_get_kernel_addr_fit
 .text.getenv_bootm_low
                0x00017490       0x30 common/built-in.o
                0x00017490                getenv_bootm_low
 .text.image_multi_getimg
                0x000174c0       0xa8 common/built-in.o
                0x000174c0                image_multi_getimg
 .text.genimg_get_format
                0x00017568       0x48 common/built-in.o
                0x00017568                genimg_get_format
 .text.genimg_print_time
                0x000175b0       0x48 common/built-in.o
                0x000175b0                genimg_print_time
 .text.genimg_print_size
                0x000175f8       0x30 common/built-in.o
                0x000175f8                genimg_print_size
 .text.image_print_contents
                0x00017628      0x2b0 common/built-in.o
                0x00017628                image_print_contents
 .text.memmove_wd
                0x000178d8        0xc common/built-in.o
                0x000178d8                memmove_wd
 .text.getenv_bootm_size
                0x000178e4       0x64 common/built-in.o
                0x000178e4                getenv_bootm_size
 .text.getenv_bootm_mapsize
                0x00017948       0x30 common/built-in.o
                0x00017948                getenv_bootm_mapsize
 .text.boot_ramdisk_high
                0x00017978      0x13c common/built-in.o
                0x00017978                boot_ramdisk_high
 .text.image_setup_linux
                0x00017ab4       0x84 common/built-in.o
                0x00017ab4                image_setup_linux
 .text.image_check_dcrc
                0x00017b38       0x60 common/built-in.o
                0x00017b38                image_check_dcrc
 .text.image_check_hcrc
                0x00017b98       0x68 common/built-in.o
                0x00017b98                image_check_hcrc
 .text.boot_get_ramdisk
                0x00017c00      0x2a0 common/built-in.o
                0x00017c00                boot_get_ramdisk
 .text.ft_verify_fdt
                0x00017ea0        0x8 common/built-in.o
                0x00017ea0                ft_verify_fdt
 .text.image_setup_libfdt
                0x00017ea8      0x134 common/built-in.o
                0x00017ea8                image_setup_libfdt
 .text.fdt_error
                0x00017fdc       0x2c common/built-in.o
 .text.boot_get_fdt
                0x00018008      0x2fc common/built-in.o
                0x00018008                boot_get_fdt
 .text.boot_relocate_fdt
                0x00018304      0x1b4 common/built-in.o
                0x00018304                boot_relocate_fdt
 .text.boot_fdt_add_mem_rsv_regions
                0x000184b8       0x98 common/built-in.o
                0x000184b8                boot_fdt_add_mem_rsv_regions
 .text.get_effective_memsize
                0x00018550        0x8 common/built-in.o
                0x00018550                get_effective_memsize
 .text.stdio_get_list
                0x00018558        0xc common/built-in.o
                0x00018558                stdio_get_list
 .text.stdio_init_tables
                0x00018564       0x1c common/built-in.o
                0x00018564                stdio_init_tables
 .text.stdio_serial_tstc
                0x00018580        0x4 common/built-in.o
 .text.stdio_serial_getc
                0x00018584        0x4 common/built-in.o
 .text.stdio_serial_puts
                0x00018588        0x8 common/built-in.o
 .text.stdio_serial_putc
                0x00018590        0x8 common/built-in.o
 .text.stdio_clone
                0x00018598       0x34 common/built-in.o
                0x00018598                stdio_clone
 .text.stdio_register_dev
                0x000185cc       0x50 common/built-in.o
                0x000185cc                stdio_register_dev
 .text.stdio_register
                0x0001861c        0x8 common/built-in.o
                0x0001861c                stdio_register
 .text.stdio_add_devices
                0x00018624       0x80 common/built-in.o
                0x00018624                stdio_add_devices
 .text.stdio_get_by_name
                0x000186a4       0x4c common/built-in.o
                0x000186a4                stdio_get_by_name
 .text.cli_init
                0x000186f0        0x4 common/built-in.o
                0x000186f0                cli_init
 .text.cli_loop
                0x000186f4        0xc common/built-in.o
                0x000186f4                cli_loop
 .text.run_command
                0x00018700       0x10 common/built-in.o
                0x00018700                run_command
 .text.do_run   0x00018710       0x70 common/built-in.o
                0x00018710                do_run
 .text.run_command_list
                0x00018780       0x74 common/built-in.o
                0x00018780                run_command_list
 .text.delete_char
                0x000187f4       0xdc common/built-in.o
 .text.cread_add_char
                0x000188d0       0xe8 common/built-in.o
 .text.cli_readline_into_buffer
                0x000189b8      0x974 common/built-in.o
                0x000189b8                cli_readline_into_buffer
 .text.cli_readline
                0x0001932c       0x1c common/built-in.o
                0x0001932c                cli_readline
 .text.cmd_process_error
                0x00019348       0x28 common/built-in.o
                0x00019348                cmd_process_error
 .text.cmd_get_data_size
                0x00019370       0x50 common/built-in.o
                0x00019370                cmd_get_data_size
 .text.cmd_usage
                0x000193c0       0x5c common/built-in.o
                0x000193c0                cmd_usage
 .text.find_cmd_tbl
                0x0001941c       0x9c common/built-in.o
                0x0001941c                find_cmd_tbl
 .text.find_cmd
                0x000194b8       0x28 common/built-in.o
                0x000194b8                find_cmd
 .text.cmd_process
                0x000194e0       0xf0 common/built-in.o
                0x000194e0                cmd_process
 .text._do_help
                0x000195d0      0x178 common/built-in.o
                0x000195d0                _do_help
 .text.hex2_bin
                0x00019748       0x80 common/built-in.o
 .text.srec_decode
                0x000197c8      0x274 common/built-in.o
                0x000197c8                srec_decode
 .text.xyzModem_error
                0x00019a3c       0x20 common/built-in.o
                0x00019a3c                xyzModem_error
 .text.CYGACC_COMM_IF_PUTC
                0x00019a5c        0x8 common/built-in.o
 .text.CYGACC_COMM_IF_GETC_TIMEOUT
                0x00019a64       0x4c common/built-in.o
 .text.xyzModem_stream_terminate
                0x00019ab0       0xf4 common/built-in.o
                0x00019ab0                xyzModem_stream_terminate
 .text.xyzModem_stream_close
                0x00019ba4       0x50 common/built-in.o
                0x00019ba4                xyzModem_stream_close
 .text.xyzModem_get_hdr
                0x00019bf4      0x2c0 common/built-in.o
 .text.xyzModem_stream_read
                0x00019eb4      0x270 common/built-in.o
                0x00019eb4                xyzModem_stream_read
 .text.xyzModem_stream_open
                0x0001a124      0x258 common/built-in.o
                0x0001a124                xyzModem_stream_open
 .text.part_init
                0x0001a37c       0x70 disk/built-in.o
                0x0001a37c                part_init
 .text.part_get_info
                0x0001a3ec       0x88 disk/built-in.o
                0x0001a3ec                part_get_info
 .text.get_dev_hwpart
                0x0001a474       0x2c disk/built-in.o
 .text.blk_get_device_by_str
                0x0001a4a0      0x130 disk/built-in.o
                0x0001a4a0                blk_get_device_by_str
 .text.blk_get_device_part_str
                0x0001a5d0      0x470 disk/built-in.o
                0x0001a5d0                blk_get_device_part_str
 .text.test_block_type
                0x0001aa40       0x80 disk/built-in.o
 .text.part_test_dos
                0x0001aac0       0x5c disk/built-in.o
 .text.print_partition_extended
                0x0001ab1c      0x278 disk/built-in.o
 .text.part_print_dos
                0x0001ad94       0x34 disk/built-in.o
                0x0001ad94                part_print_dos
 .text.part_get_info_extended
                0x0001adc8      0x304 disk/built-in.o
 .text.part_get_info_dos
                0x0001b0cc       0x28 disk/built-in.o
                0x0001b0cc                part_get_info_dos
 .text.alloc_priv
                0x0001b0f4       0x4c drivers/built-in.o
 .text.device_probe
                0x0001b140      0x1d8 drivers/built-in.o
                0x0001b140                device_probe
 .text.device_bind_common
                0x0001b318      0x284 drivers/built-in.o
 .text.device_bind_by_name
                0x0001b59c       0x70 drivers/built-in.o
                0x0001b59c                device_bind_by_name
 .text.lists_uclass_lookup
                0x0001b60c       0x54 drivers/built-in.o
                0x0001b60c                lists_uclass_lookup
 .text.lists_bind_drivers
                0x0001b660       0x94 drivers/built-in.o
                0x0001b660                lists_bind_drivers
 .text.lists_driver_lookup_name
                0x0001b6f4       0x64 drivers/built-in.o
                0x0001b6f4                lists_driver_lookup_name
 .text.dm_scan_other
                0x0001b758        0x8 drivers/built-in.o
                0x0001b758                dm_scan_other
 .text.dm_scan_platdata
                0x0001b760       0x2c drivers/built-in.o
                0x0001b760                dm_scan_platdata
 .text.dm_root  0x0001b78c       0x2c drivers/built-in.o
                0x0001b78c                dm_root
 .text.dm_init  0x0001b7b8       0x58 drivers/built-in.o
                0x0001b7b8                dm_init
 .text.dm_init_and_scan
                0x0001b810       0x30 drivers/built-in.o
                0x0001b810                dm_init_and_scan
 .text.uclass_bind_device
                0x0001b840       0x80 drivers/built-in.o
                0x0001b840                uclass_bind_device
 .text.uclass_pre_probe_device
                0x0001b8c0       0x64 drivers/built-in.o
                0x0001b8c0                uclass_pre_probe_device
 .text.uclass_post_probe_device
                0x0001b924       0x28 drivers/built-in.o
                0x0001b924                uclass_post_probe_device
 .text.uclass_get_device_tail
                0x0001b94c       0x28 drivers/built-in.o
                0x0001b94c                uclass_get_device_tail
 .text.uclass_next_device
                0x0001b974       0x38 drivers/built-in.o
                0x0001b974                uclass_next_device
 .text.uclass_get
                0x0001b9ac      0x158 drivers/built-in.o
                0x0001b9ac                uclass_get
 .text.uclass_find_device_by_seq
                0x0001bb04       0x70 drivers/built-in.o
                0x0001bb04                uclass_find_device_by_seq
 .text.uclass_resolve_seq
                0x0001bb74       0xb4 drivers/built-in.o
                0x0001bb74                uclass_resolve_seq
 .text.uclass_find_first_device
                0x0001bc28       0x38 drivers/built-in.o
                0x0001bc28                uclass_find_first_device
 .text.uclass_first_device
                0x0001bc60       0x30 drivers/built-in.o
                0x0001bc60                uclass_first_device
 .text.dm_warn  0x0001bc90       0x28 drivers/built-in.o
                0x0001bc90                dm_warn
 .text.dm_dump_uclass
                0x0001bcb8       0xdc drivers/built-in.o
                0x0001bcb8                dm_dump_uclass
 .text.show_devices
                0x0001bd94      0x100 drivers/built-in.o
 .text.dm_dump_all
                0x0001be94       0x3c drivers/built-in.o
                0x0001be94                dm_dump_all
 .text.blk_driver_lookup_type
                0x0001bed0       0x54 drivers/built-in.o
                0x0001bed0                blk_driver_lookup_type
 .text.get_desc
                0x0001bf24       0x68 drivers/built-in.o
 .text.blk_get_devnum_by_type
                0x0001bf8c       0x34 drivers/built-in.o
                0x0001bf8c                blk_get_devnum_by_type
 .text.blk_dselect_hwpart
                0x0001bfc0       0x44 drivers/built-in.o
                0x0001bfc0                blk_dselect_hwpart
 .text.blk_get_devnum_by_typename
                0x0001c004       0x8c drivers/built-in.o
                0x0001c004                blk_get_devnum_by_typename
 .text.status_led_init
                0x0001c090       0x40 drivers/built-in.o
                0x0001c090                status_led_init
 .text.status_led_set
                0x0001c0d0       0x58 drivers/built-in.o
                0x0001c0d0                status_led_set
 .text.rtc_calc_weekday
                0x0001c128       0xd4 drivers/built-in.o
                0x0001c128                rtc_calc_weekday
 .text.rtc_to_tm
                0x0001c1fc      0x120 drivers/built-in.o
                0x0001c1fc                rtc_to_tm
 .text.rtc_get  0x0001c31c      0x208 drivers/built-in.o
                0x0001c31c                rtc_get
 .text.rtc_set  0x0001c524      0x1a0 drivers/built-in.o
                0x0001c524                rtc_set
 .text.rtc_reset
                0x0001c6c4       0x28 drivers/built-in.o
                0x0001c6c4                rtc_reset
 .text.__get_mtd_device
                0x0001c6ec       0x38 drivers/mtd/built-in.o
                0x0001c6ec                __get_mtd_device
 .text.get_mtd_device
                0x0001c724       0xa4 drivers/mtd/built-in.o
                0x0001c724                get_mtd_device
 .text.mtd_write
                0x0001c7c8       0xb4 drivers/mtd/built-in.o
                0x0001c7c8                mtd_write
 .text.mtd_unlock
                0x0001c87c       0xac drivers/mtd/built-in.o
                0x0001c87c                mtd_unlock
 .text.mtd_block_isbad
                0x0001c928       0x4c drivers/mtd/built-in.o
                0x0001c928                mtd_block_isbad
 .text.mtd_block_markbad
                0x0001c974       0x5c drivers/mtd/built-in.o
                0x0001c974                mtd_block_markbad
 .text.mtd_read_oob
                0x0001c9d0       0x60 drivers/mtd/built-in.o
                0x0001c9d0                mtd_read_oob
 .text.mtd_read
                0x0001ca30       0xd0 drivers/mtd/built-in.o
                0x0001ca30                mtd_read
 .text.mtd_erase
                0x0001cb00       0xb8 drivers/mtd/built-in.o
                0x0001cb00                mtd_erase
 .text.__put_mtd_device
                0x0001cbb8       0x50 drivers/mtd/built-in.o
                0x0001cbb8                __put_mtd_device
 .text.put_mtd_device
                0x0001cc08        0x4 drivers/mtd/built-in.o
                0x0001cc08                put_mtd_device
 .text.del_mtd_device
                0x0001cc0c       0x6c drivers/mtd/built-in.o
                0x0001cc0c                del_mtd_device
 .text.add_mtd_device
                0x0001cc78      0x1d8 drivers/mtd/built-in.o
                0x0001cc78                add_mtd_device
 .text.get_mtd_device_nm
                0x0001ce50       0x74 drivers/mtd/built-in.o
                0x0001ce50                get_mtd_device_nm
 .text.mtd_arg_off
                0x0001cec4      0x10c drivers/mtd/built-in.o
                0x0001cec4                mtd_arg_off
 .text.mtd_arg_off_size
                0x0001cfd0      0x13c drivers/mtd/built-in.o
                0x0001cfd0                mtd_arg_off_size
 .text.part_get_unmapped_area
                0x0001d10c       0x20 drivers/mtd/built-in.o
 .text.part_read_user_prot_reg
                0x0001d12c       0x34 drivers/mtd/built-in.o
 .text.part_get_user_prot_info
                0x0001d160       0x18 drivers/mtd/built-in.o
 .text.part_read_fact_prot_reg
                0x0001d178       0x34 drivers/mtd/built-in.o
 .text.part_get_fact_prot_info
                0x0001d1ac       0x18 drivers/mtd/built-in.o
 .text.part_write
                0x0001d1c4       0x44 drivers/mtd/built-in.o
 .text.part_panic_write
                0x0001d208       0x44 drivers/mtd/built-in.o
 .text.part_write_oob
                0x0001d24c       0x80 drivers/mtd/built-in.o
 .text.part_write_user_prot_reg
                0x0001d2cc       0x34 drivers/mtd/built-in.o
 .text.part_lock_user_prot_reg
                0x0001d300       0x20 drivers/mtd/built-in.o
 .text.part_erase
                0x0001d320       0xa0 drivers/mtd/built-in.o
 .text.mtd_erase_callback
                0x0001d3c0       0x8c drivers/mtd/built-in.o
                0x0001d3c0                mtd_erase_callback
 .text.part_lock
                0x0001d44c       0x34 drivers/mtd/built-in.o
 .text.part_unlock
                0x0001d480       0x34 drivers/mtd/built-in.o
 .text.part_is_locked
                0x0001d4b4       0x34 drivers/mtd/built-in.o
 .text.part_sync
                0x0001d4e8       0x18 drivers/mtd/built-in.o
 .text.part_block_isreserved
                0x0001d500       0x28 drivers/mtd/built-in.o
 .text.part_block_isbad
                0x0001d528       0x28 drivers/mtd/built-in.o
 .text.part_block_markbad
                0x0001d550       0x3c drivers/mtd/built-in.o
 .text.mtd_get_device_size
                0x0001d58c       0x4c drivers/mtd/built-in.o
                0x0001d58c                mtd_get_device_size
 .text.part_read
                0x0001d5d8       0x9c drivers/mtd/built-in.o
 .text.part_read_oob
                0x0001d674      0x18c drivers/mtd/built-in.o
 .text.del_mtd_partitions
                0x0001d800       0x94 drivers/mtd/built-in.o
                0x0001d800                del_mtd_partitions
 .text.kstrdup  0x0001d894       0x40 drivers/mtd/built-in.o
                0x0001d894                kstrdup
 .text.add_mtd_partitions
                0x0001d8d4      0x800 drivers/mtd/built-in.o
                0x0001d8d4                add_mtd_partitions
 .text.cfi_flash_bank_size
                0x0001e0d4        0x8 drivers/mtd/built-in.o
                0x0001e0d4                cfi_flash_bank_size
 .text.flash_make_cmd
                0x0001e0dc       0x58 drivers/mtd/built-in.o
 .text.flash_write_cmd
                0x0001e134       0x8c drivers/mtd/built-in.o
                0x0001e134                flash_write_cmd
 .text.flash_unlock_seq
                0x0001e1c0       0x30 drivers/mtd/built-in.o
 .text.flash_isset
                0x0001e1f0       0xc4 drivers/mtd/built-in.o
 .text.flash_add_byte
                0x0001e2b4       0x9c drivers/mtd/built-in.o
 .text.cfi_reverse_geometry
                0x0001e350       0xd4 drivers/mtd/built-in.o
 .text.cfi_flash_probe
                0x0001e424       0xd0 drivers/mtd/built-in.o
 .text.__flash_cmd_reset
                0x0001e4f4       0x38 drivers/mtd/built-in.o
                0x0001e4f4                flash_cmd_reset
 .text.flash_protect_default
                0x0001e52c       0xe0 drivers/mtd/built-in.o
                0x0001e52c                flash_protect_default
 .text.flash_print_info
                0x0001e60c      0x228 drivers/mtd/built-in.o
                0x0001e60c                flash_print_info
 .text.flash_full_status_check
                0x0001e834      0x2e4 drivers/mtd/built-in.o
 .text.flash_write_cfiword
                0x0001eb18      0x300 drivers/mtd/built-in.o
 .text.write_buff
                0x0001ee18      0x2b4 drivers/mtd/built-in.o
                0x0001ee18                write_buff
 .text.flash_erase
                0x0001f0cc      0x1c4 drivers/mtd/built-in.o
                0x0001f0cc                flash_erase
 .text.T.196    0x0001f290       0xb8 drivers/mtd/built-in.o
 .text.flash_get_size
                0x0001f348      0x8e0 drivers/mtd/built-in.o
                0x0001f348                flash_get_size
 .text.flash_init
                0x0001fc28       0xb0 drivers/mtd/built-in.o
                0x0001fc28                flash_init
 .text.nand_mtd_to_devnum
                0x0001fcd8       0x28 drivers/mtd/nand/built-in.o
                0x0001fcd8                nand_mtd_to_devnum
 .text.nand_register
                0x0001fd00       0x90 drivers/mtd/nand/built-in.o
                0x0001fd00                nand_register
 .text.nand_init
                0x0001fd90       0x60 drivers/mtd/nand/built-in.o
                0x0001fd90                nand_init
 .text.nand_isreserved_bbt
                0x0001fdf0       0x40 drivers/mtd/nand/built-in.o
                0x0001fdf0                nand_isreserved_bbt
 .text.nand_isbad_bbt
                0x0001fe30       0x50 drivers/mtd/nand/built-in.o
                0x0001fe30                nand_isbad_bbt
 .text.read_bbt
                0x0001fe80      0x200 drivers/mtd/nand/built-in.o
 .text.read_abs_bbt
                0x00020080       0xc4 drivers/mtd/nand/built-in.o
 .text.scan_read
                0x00020144       0xf0 drivers/mtd/nand/built-in.o
 .text.write_bbt
                0x00020234      0x628 drivers/mtd/nand/built-in.o
 .text.nand_update_bbt
                0x0002085c      0x114 drivers/mtd/nand/built-in.o
 .text.nand_markbad_bbt
                0x00020970       0x5c drivers/mtd/nand/built-in.o
                0x00020970                nand_markbad_bbt
 .text.mark_bbt_region
                0x000209cc      0x180 drivers/mtd/nand/built-in.o
 .text.verify_bbt_descr
                0x00020b4c      0x160 drivers/mtd/nand/built-in.o
 .text.create_bbt
                0x00020cac      0x234 drivers/mtd/nand/built-in.o
 .text.search_bbt
                0x00020ee0      0x1bc drivers/mtd/nand/built-in.o
 .text.nand_default_bbt
                0x0002109c      0x56c drivers/mtd/nand/built-in.o
                0x0002109c                nand_default_bbt
 .text.nand_unlock
                0x00021608      0x184 drivers/mtd/nand/built-in.o
                0x00021608                nand_unlock
 .text.nand_get_lock_status
                0x0002178c       0xb0 drivers/mtd/nand/built-in.o
                0x0002178c                nand_get_lock_status
 .text.nand_lock
                0x0002183c       0xa8 drivers/mtd/nand/built-in.o
                0x0002183c                nand_lock
 .text.check_skip_len
                0x000218e4       0xb0 drivers/mtd/nand/built-in.o
 .text.nand_read_skip_bad
                0x00021994      0x25c drivers/mtd/nand/built-in.o
                0x00021994                nand_read_skip_bad
 .text.nand_verify
                0x00021bf0       0xfc drivers/mtd/nand/built-in.o
                0x00021bf0                nand_verify
 .text.nand_write_skip_bad
                0x00021cec      0x2f4 drivers/mtd/nand/built-in.o
                0x00021cec                nand_write_skip_bad
 .text.nand_verify_page_oob
                0x00021fe0       0xc0 drivers/mtd/nand/built-in.o
                0x00021fe0                nand_verify_page_oob
 .text.nand_erase_opts
                0x000220a0      0x38c drivers/mtd/nand/built-in.o
                0x000220a0                nand_erase_opts
 .text.nand_calculate_ecc
                0x0002242c       0xf4 drivers/mtd/nand/built-in.o
                0x0002242c                nand_calculate_ecc
 .text.nand_correct_data
                0x00022520      0x120 drivers/mtd/nand/built-in.o
                0x00022520                nand_correct_data
 .text.nand_release_device
                0x00022640       0x14 drivers/mtd/nand/built-in.o
 .text.nand_read_byte
                0x00022654       0x10 drivers/mtd/nand/built-in.o
                0x00022654                nand_read_byte
 .text.nand_read_byte16
                0x00022664       0x10 drivers/mtd/nand/built-in.o
 .text.nand_read_word
                0x00022674        0xc drivers/mtd/nand/built-in.o
 .text.nand_write_byte
                0x00022680       0x20 drivers/mtd/nand/built-in.o
 .text.nand_write_byte16
                0x000226a0       0x20 drivers/mtd/nand/built-in.o
 .text.nand_write_buf
                0x000226c0       0x24 drivers/mtd/nand/built-in.o
                0x000226c0                nand_write_buf
 .text.nand_read_buf
                0x000226e4       0x28 drivers/mtd/nand/built-in.o
                0x000226e4                nand_read_buf
 .text.nand_write_buf16
                0x0002270c       0x2c drivers/mtd/nand/built-in.o
                0x0002270c                nand_write_buf16
 .text.nand_read_buf16
                0x00022738       0x30 drivers/mtd/nand/built-in.o
                0x00022738                nand_read_buf16
 .text.nand_check_wp
                0x00022768       0x48 drivers/mtd/nand/built-in.o
 .text.nand_read_page_raw
                0x000227b0       0x40 drivers/mtd/nand/built-in.o
 .text.nand_read_page_raw_syndrome
                0x000227f0       0xcc drivers/mtd/nand/built-in.o
 .text.nand_read_page_swecc
                0x000228bc      0x138 drivers/mtd/nand/built-in.o
 .text.nand_read_oob_std
                0x000229f4       0x3c drivers/mtd/nand/built-in.o
 .text.nand_read_oob_syndrome
                0x00022a30      0x100 drivers/mtd/nand/built-in.o
 .text.nand_write_oob_std
                0x00022b30       0x70 drivers/mtd/nand/built-in.o
 .text.nand_write_oob_syndrome
                0x00022ba0      0x1ac drivers/mtd/nand/built-in.o
 .text.nand_write_page_raw
                0x00022d4c       0x40 drivers/mtd/nand/built-in.o
 .text.nand_write_page_raw_syndrome
                0x00022d8c       0xcc drivers/mtd/nand/built-in.o
 .text.nand_write_page_swecc
                0x00022e58       0xd0 drivers/mtd/nand/built-in.o
 .text.nand_write_page_hwecc
                0x00022f28       0xcc drivers/mtd/nand/built-in.o
 .text.nand_write_page_syndrome
                0x00022ff4       0xec drivers/mtd/nand/built-in.o
 .text.single_erase
                0x000230e0       0x48 drivers/mtd/nand/built-in.o
 .text.nand_sync
                0x00023128        0xc drivers/mtd/nand/built-in.o
 .text.nand_onfi_set_features
                0x00023134       0x5c drivers/mtd/nand/built-in.o
 .text.nand_onfi_get_features
                0x00023190       0x48 drivers/mtd/nand/built-in.o
 .text.nand_set_defaults
                0x000231d8      0x1ac drivers/mtd/nand/built-in.o
 .text.nand_write_page
                0x00023384      0x168 drivers/mtd/nand/built-in.o
 .text.nand_block_bad
                0x000234ec      0x144 drivers/mtd/nand/built-in.o
 .text.nand_check_erased_buf
                0x00023630      0x164 drivers/mtd/nand/built-in.o
 .text.nand_select_chip
                0x00023794       0x54 drivers/mtd/nand/built-in.o
 .text.nand_scan_tail
                0x000237e8      0x660 drivers/mtd/nand/built-in.o
                0x000237e8                nand_scan_tail
 .text.nand_write_subpage_hwecc
                0x00023e48      0x1ac drivers/mtd/nand/built-in.o
 .text.nand_check_erased_ecc_chunk
                0x00023ff4       0xb0 drivers/mtd/nand/built-in.o
                0x00023ff4                nand_check_erased_ecc_chunk
 .text.nand_read_page_syndrome
                0x000240a4      0x1c0 drivers/mtd/nand/built-in.o
 .text.nand_read_subpage
                0x00024264      0x2d0 drivers/mtd/nand/built-in.o
 .text.nand_read_page_hwecc
                0x00024534      0x1ac drivers/mtd/nand/built-in.o
 .text.nand_read_page_hwecc_oob_first
                0x000246e0      0x1b0 drivers/mtd/nand/built-in.o
 .text.nand_block_checkbad
                0x00024890       0x74 drivers/mtd/nand/built-in.o
 .text.nand_block_isbad
                0x00024904       0x74 drivers/mtd/nand/built-in.o
 .text.nand_block_isreserved
                0x00024978       0x18 drivers/mtd/nand/built-in.o
 .text.nand_fill_oob
                0x00024990      0x12c drivers/mtd/nand/built-in.o
 .text.nand_do_write_oob
                0x00024abc      0x1d8 drivers/mtd/nand/built-in.o
 .text.nand_default_block_markbad
                0x00024c94       0xec drivers/mtd/nand/built-in.o
 .text.nand_do_write_ops
                0x00024d80      0x360 drivers/mtd/nand/built-in.o
 .text.nand_write_oob
                0x000250e0       0xa4 drivers/mtd/nand/built-in.o
 .text.nand_write
                0x00025184       0x80 drivers/mtd/nand/built-in.o
 .text.nand_transfer_oob
                0x00025204      0x118 drivers/mtd/nand/built-in.o
 .text.panic_nand_write
                0x0002531c       0xc8 drivers/mtd/nand/built-in.o
 .text.nand_wait
                0x000253e4       0xc4 drivers/mtd/nand/built-in.o
 .text.nand_wait_ready
                0x000254a8       0x60 drivers/mtd/nand/built-in.o
                0x000254a8                nand_wait_ready
 .text.nand_do_read_ops
                0x00025508      0x4b8 drivers/mtd/nand/built-in.o
 .text.nand_read_oob
                0x000259c0      0x304 drivers/mtd/nand/built-in.o
 .text.nand_read
                0x00025cc4       0x80 drivers/mtd/nand/built-in.o
 .text.sanitize_string
                0x00025d44       0x38 drivers/mtd/nand/built-in.o
 .text.nand_scan_ident
                0x00025d7c      0xc64 drivers/mtd/nand/built-in.o
                0x00025d7c                nand_scan_ident
 .text.nand_scan
                0x000269e0       0x24 drivers/mtd/nand/built-in.o
                0x000269e0                nand_scan
 .text.nand_erase_nand
                0x00026a04      0x274 drivers/mtd/nand/built-in.o
                0x00026a04                nand_erase_nand
 .text.nand_block_markbad
                0x00026c78       0xec drivers/mtd/nand/built-in.o
 .text.nand_erase
                0x00026d64        0x8 drivers/mtd/nand/built-in.o
 .text.T.364    0x00026d6c       0x40 drivers/mtd/nand/built-in.o
 .text.nand_command_lp
                0x00026dac      0x230 drivers/mtd/nand/built-in.o
 .text.nand_command
                0x00026fdc      0x1c4 drivers/mtd/nand/built-in.o
 .text.s3c24x0_hwcontrol
                0x000271a0       0x68 drivers/mtd/nand/built-in.o
 .text.s3c24x0_dev_ready
                0x00027208       0x14 drivers/mtd/nand/built-in.o
 .text.s3c24x0_nand_enable_hwecc
                0x0002721c       0x1c drivers/mtd/nand/built-in.o
                0x0002721c                s3c24x0_nand_enable_hwecc
 .text.s3c24x0_nand_calculate_ecc
                0x00027238       0x58 drivers/mtd/nand/built-in.o
 .text.board_nand_init
                0x00027290       0xac drivers/mtd/nand/built-in.o
                0x00027290                board_nand_init
 .text.s3c24x0_nand_correct_data
                0x0002733c       0x5c drivers/mtd/nand/built-in.o
 .text.ubi_find_av
                0x00027398       0x30 drivers/mtd/ubi/built-in.o
                0x00027398                ubi_find_av
 .text.destroy_ai
                0x000273c8      0x208 drivers/mtd/ubi/built-in.o
 .text.add_to_list
                0x000275d0       0xcc drivers/mtd/ubi/built-in.o
 .text.validate_vid_hdr
                0x0002769c      0x454 drivers/mtd/ubi/built-in.o
 .text.ubi_early_get_peb
                0x00027af0      0x1c4 drivers/mtd/ubi/built-in.o
                0x00027af0                ubi_early_get_peb
 .text.ubi_remove_av
                0x00027cb4       0x6c drivers/mtd/ubi/built-in.o
                0x00027cb4                ubi_remove_av
 .text.ubi_compare_lebs
                0x00027d20      0x26c drivers/mtd/ubi/built-in.o
                0x00027d20                ubi_compare_lebs
 .text.ubi_add_to_av
                0x00027f8c      0x5b4 drivers/mtd/ubi/built-in.o
                0x00027f8c                ubi_add_to_av
 .text.ubi_attach
                0x00028540     0x10ac drivers/mtd/ubi/built-in.o
                0x00028540                ubi_attach
 .text.ubi_get_device
                0x000295ec       0x20 drivers/mtd/ubi/built-in.o
                0x000295ec                ubi_get_device
 .text.ubi_put_device
                0x0002960c       0x10 drivers/mtd/ubi/built-in.o
                0x0002960c                ubi_put_device
 .text.kstrtoint
                0x0002961c       0x24 drivers/mtd/ubi/built-in.o
                0x0002961c                kstrtoint
 .text.ubi_mtd_param_parse
                0x00029640      0x1e0 drivers/mtd/ubi/built-in.o
                0x00029640                ubi_mtd_param_parse
 .text.ubi_free_internal_volumes
                0x00029820       0x44 drivers/mtd/ubi/built-in.o
                0x00029820                ubi_free_internal_volumes
 .text.ubi_notify_all
                0x00029864       0x64 drivers/mtd/ubi/built-in.o
                0x00029864                ubi_notify_all
 .text.ubi_detach_mtd_dev
                0x000298c8       0xf8 drivers/mtd/ubi/built-in.o
                0x000298c8                ubi_detach_mtd_dev
 .text.ubi_exit
                0x000299c0       0x58 drivers/mtd/ubi/built-in.o
                0x000299c0                ubi_exit
 .text.ubi_attach_mtd_dev
                0x00029a18      0x78c drivers/mtd/ubi/built-in.o
                0x00029a18                ubi_attach_mtd_dev
 .text.ubi_init
                0x0002a1a4      0x13c drivers/mtd/ubi/built-in.o
                0x0002a1a4                ubi_init
 .text.ubi_volume_notify
                0x0002a2e0       0x38 drivers/mtd/ubi/built-in.o
                0x0002a2e0                ubi_volume_notify
 .text.create_vtbl
                0x0002a318      0x2ec drivers/mtd/ubi/built-in.o
 .text.vtbl_check
                0x0002a604      0x32c drivers/mtd/ubi/built-in.o
 .text.ubi_read_volume_table
                0x0002a930      0x77c drivers/mtd/ubi/built-in.o
                0x0002a930                ubi_read_volume_table
 .text.ubi_change_vtbl_record
                0x0002b0ac      0x11c drivers/mtd/ubi/built-in.o
                0x0002b0ac                ubi_change_vtbl_record
 .text.ubi_free_volume
                0x0002b1c8       0x18 drivers/mtd/ubi/built-in.o
                0x0002b1c8                ubi_free_volume
 .text.self_check_volumes
                0x0002b1e0      0x3ec drivers/mtd/ubi/built-in.o
 .text.ubi_add_volume
                0x0002b5cc       0x30 drivers/mtd/ubi/built-in.o
                0x0002b5cc                ubi_add_volume
 .text.vol_release
                0x0002b5fc       0x1c drivers/mtd/ubi/built-in.o
 .text.ubi_resize_volume
                0x0002b618      0x260 drivers/mtd/ubi/built-in.o
                0x0002b618                ubi_resize_volume
 .text.ubi_create_volume
                0x0002b878      0x4b0 drivers/mtd/ubi/built-in.o
                0x0002b878                ubi_create_volume
 .text.write_leb
                0x0002bd28       0xb8 drivers/mtd/ubi/built-in.o
 .text.clear_update_marker
                0x0002bde0       0xec drivers/mtd/ubi/built-in.o
 .text.ubi_more_update_data
                0x0002becc      0x2a4 drivers/mtd/ubi/built-in.o
                0x0002becc                ubi_more_update_data
 .text.ubi_start_update
                0x0002c170      0x188 drivers/mtd/ubi/built-in.o
                0x0002c170                ubi_start_update
 .text.ubi_do_get_device_info
                0x0002c2f8       0x34 drivers/mtd/ubi/built-in.o
                0x0002c2f8                ubi_do_get_device_info
 .text.ubi_do_get_volume_info
                0x0002c32c       0x80 drivers/mtd/ubi/built-in.o
                0x0002c32c                ubi_do_get_volume_info
 .text.ubi_get_volume_info
                0x0002c3ac       0x88 drivers/mtd/ubi/built-in.o
                0x0002c3ac                ubi_get_volume_info
 .text.ubi_is_mapped
                0x0002c434       0x44 drivers/mtd/ubi/built-in.o
                0x0002c434                ubi_is_mapped
 .text.ubi_get_device_info
                0x0002c478       0x60 drivers/mtd/ubi/built-in.o
                0x0002c478                ubi_get_device_info
 .text.ubi_leb_unmap
                0x0002c4d8       0x60 drivers/mtd/ubi/built-in.o
                0x0002c4d8                ubi_leb_unmap
 .text.ubi_leb_read
                0x0002c538      0x114 drivers/mtd/ubi/built-in.o
                0x0002c538                ubi_leb_read
 .text.ubi_close_volume
                0x0002c64c       0x80 drivers/mtd/ubi/built-in.o
                0x0002c64c                ubi_close_volume
 .text.ubi_open_volume
                0x0002c6cc      0x1b8 drivers/mtd/ubi/built-in.o
                0x0002c6cc                ubi_open_volume
 .text.ubi_open_volume_nm
                0x0002c884       0xc8 drivers/mtd/ubi/built-in.o
                0x0002c884                ubi_open_volume_nm
 .text.ubi_eba_init
                0x0002c94c      0x230 drivers/mtd/ubi/built-in.o
                0x0002c94c                ubi_eba_init
 .text.leb_write_unlock
                0x0002cb7c       0x6c drivers/mtd/ubi/built-in.o
 .text.leb_read_unlock
                0x0002cbe8       0x6c drivers/mtd/ubi/built-in.o
 .text.ltree_add_entry
                0x0002cc54       0xf4 drivers/mtd/ubi/built-in.o
 .text.leb_write_lock
                0x0002cd48       0x14 drivers/mtd/ubi/built-in.o
 .text.ubi_eba_copy_leb
                0x0002cd5c      0x464 drivers/mtd/ubi/built-in.o
                0x0002cd5c                ubi_eba_copy_leb
 .text.ubi_eba_unmap_leb
                0x0002d1c0       0x7c drivers/mtd/ubi/built-in.o
                0x0002d1c0                ubi_eba_unmap_leb
 .text.ubi_eba_write_leb_st
                0x0002d23c      0x518 drivers/mtd/ubi/built-in.o
                0x0002d23c                ubi_eba_write_leb_st
 .text.ubi_eba_write_leb
                0x0002d754      0x7d4 drivers/mtd/ubi/built-in.o
                0x0002d754                ubi_eba_write_leb
 .text.ubi_eba_atomic_leb_change
                0x0002df28      0x4d0 drivers/mtd/ubi/built-in.o
                0x0002df28                ubi_eba_atomic_leb_change
 .text.ubi_eba_read_leb
                0x0002e3f8      0x228 drivers/mtd/ubi/built-in.o
                0x0002e3f8                ubi_eba_read_leb
 .text.erase_callback
                0x0002e620        0x4 drivers/mtd/ubi/built-in.o
 .text.ubi_self_check_all_ff
                0x0002e624       0xcc drivers/mtd/ubi/built-in.o
                0x0002e624                ubi_self_check_all_ff
 .text.validate_ec_hdr
                0x0002e6f0      0x154 drivers/mtd/ubi/built-in.o
 .text.self_check_ec_hdr
                0x0002e844       0x80 drivers/mtd/ubi/built-in.o
 .text.self_check_vid_hdr
                0x0002e8c4       0x80 drivers/mtd/ubi/built-in.o
 .text.ubi_io_mark_bad
                0x0002e944       0x44 drivers/mtd/ubi/built-in.o
                0x0002e944                ubi_io_mark_bad
 .text.ubi_io_is_bad
                0x0002e988       0x34 drivers/mtd/ubi/built-in.o
                0x0002e988                ubi_io_is_bad
 .text.ubi_io_read
                0x0002e9bc       0xec drivers/mtd/ubi/built-in.o
                0x0002e9bc                ubi_io_read
 .text.self_check_peb_ec_hdr
                0x0002eaa8       0xe8 drivers/mtd/ubi/built-in.o
 .text.ubi_io_read_vid_hdr
                0x0002eb90      0x178 drivers/mtd/ubi/built-in.o
                0x0002eb90                ubi_io_read_vid_hdr
 .text.ubi_io_read_ec_hdr
                0x0002ed08      0x168 drivers/mtd/ubi/built-in.o
                0x0002ed08                ubi_io_read_ec_hdr
 .text.ubi_io_write
                0x0002ee70      0x354 drivers/mtd/ubi/built-in.o
                0x0002ee70                ubi_io_write
 .text.ubi_io_write_vid_hdr
                0x0002f1c4       0xdc drivers/mtd/ubi/built-in.o
                0x0002f1c4                ubi_io_write_vid_hdr
 .text.ubi_io_write_ec_hdr
                0x0002f2a0      0x17c drivers/mtd/ubi/built-in.o
                0x0002f2a0                ubi_io_write_ec_hdr
 .text.do_sync_erase
                0x0002f41c      0x138 drivers/mtd/ubi/built-in.o
 .text.ubi_io_sync_erase
                0x0002f554      0x298 drivers/mtd/ubi/built-in.o
                0x0002f554                ubi_io_sync_erase
 .text.do_work  0x0002f7ec       0x50 drivers/mtd/ubi/built-in.o
                0x0002f7ec                do_work
 .text.ubi_wl_flush
                0x0002f83c       0xb4 drivers/mtd/ubi/built-in.o
                0x0002f83c                ubi_wl_flush
 .text.shutdown_work
                0x0002f8f0       0x5c drivers/mtd/ubi/built-in.o
 .text.find_wl_entry
                0x0002f94c       0x88 drivers/mtd/ubi/built-in.o
 .text.get_peb_for_wl
                0x0002f9d4       0x94 drivers/mtd/ubi/built-in.o
 .text.ubi_wl_get_peb
                0x0002fa68      0x168 drivers/mtd/ubi/built-in.o
                0x0002fa68                ubi_wl_get_peb
 .text.wl_entry_destroy
                0x0002fbd0       0x18 drivers/mtd/ubi/built-in.o
 .text.tree_destroy
                0x0002fbe8       0x60 drivers/mtd/ubi/built-in.o
 .text.ubi_wl_close
                0x0002fc48       0xc4 drivers/mtd/ubi/built-in.o
                0x0002fc48                ubi_wl_close
 .text.schedule_erase
                0x0002fd0c       0x84 drivers/mtd/ubi/built-in.o
 .text.ensure_wear_leveling
                0x0002fd90      0x11c drivers/mtd/ubi/built-in.o
 .text.wl_tree_add
                0x0002feac       0x68 drivers/mtd/ubi/built-in.o
 .text.ubi_wl_init
                0x0002ff14      0x320 drivers/mtd/ubi/built-in.o
                0x0002ff14                ubi_wl_init
 .text.erase_worker
                0x00030234      0x494 drivers/mtd/ubi/built-in.o
 .text.ubi_wl_scrub_peb
                0x000306c8      0x24c drivers/mtd/ubi/built-in.o
                0x000306c8                ubi_wl_scrub_peb
 .text.ubi_wl_put_peb
                0x00030914      0x324 drivers/mtd/ubi/built-in.o
                0x00030914                ubi_wl_put_peb
 .text.wear_leveling_worker
                0x00030c38      0x4e4 drivers/mtd/ubi/built-in.o
 .text.crc32_le
                0x0003111c       0xf0 drivers/mtd/ubi/built-in.o
                0x0003111c                crc32_le
 .text.ubi_calc_data_len
                0x0003120c       0x34 drivers/mtd/ubi/built-in.o
                0x0003120c                ubi_calc_data_len
 .text.ubi_calculate_reserved
                0x00031240       0x20 drivers/mtd/ubi/built-in.o
                0x00031240                ubi_calculate_reserved
 .text.ubi_check_pattern
                0x00031260       0x30 drivers/mtd/ubi/built-in.o
                0x00031260                ubi_check_pattern
 .text.ubi_update_reserved
                0x00031290       0x54 drivers/mtd/ubi/built-in.o
                0x00031290                ubi_update_reserved
 .text.ubi_check_volume
                0x000312e4       0xb0 drivers/mtd/ubi/built-in.o
                0x000312e4                ubi_check_volume
 .text.ubi_dump_ec_hdr
                0x00031394        0x4 drivers/mtd/ubi/built-in.o
                0x00031394                ubi_dump_ec_hdr
 .text.ubi_dump_vid_hdr
                0x00031398        0x4 drivers/mtd/ubi/built-in.o
                0x00031398                ubi_dump_vid_hdr
 .text.ubi_dump_av
                0x0003139c        0x4 drivers/mtd/ubi/built-in.o
                0x0003139c                ubi_dump_av
 .text.ubi_dump_aeb
                0x000313a0        0x4 drivers/mtd/ubi/built-in.o
                0x000313a0                ubi_dump_aeb
 .text.ubi_debugfs_init
                0x000313a4        0x8 drivers/mtd/ubi/built-in.o
                0x000313a4                ubi_debugfs_init
 .text.ubi_debugfs_exit
                0x000313ac        0x4 drivers/mtd/ubi/built-in.o
                0x000313ac                ubi_debugfs_exit
 .text.ubi_debugfs_init_dev
                0x000313b0        0x8 drivers/mtd/ubi/built-in.o
                0x000313b0                ubi_debugfs_init_dev
 .text.ubi_debugfs_exit_dev
                0x000313b8        0x4 drivers/mtd/ubi/built-in.o
                0x000313b8                ubi_debugfs_exit_dev
 .text.ubi_dbg_power_cut
                0x000313bc        0x8 drivers/mtd/ubi/built-in.o
                0x000313bc                ubi_dbg_power_cut
 .text.ubi_dump_vtbl_record
                0x000313c4       0x3c drivers/mtd/ubi/built-in.o
                0x000313c4                ubi_dump_vtbl_record
 .text.ubi_dump_vol_info
                0x00031400      0x158 drivers/mtd/ubi/built-in.o
                0x00031400                ubi_dump_vol_info
 .text.ubi_dump_flash
                0x00031558       0x8c drivers/mtd/ubi/built-in.o
                0x00031558                ubi_dump_flash
 .text.dm9000_outblk_8bit
                0x000315e4       0x28 drivers/net/built-in.o
 .text.dm9000_outblk_16bit
                0x0003160c       0x38 drivers/net/built-in.o
 .text.dm9000_outblk_32bit
                0x00031644       0x34 drivers/net/built-in.o
 .text.dm9000_inblk_8bit
                0x00031678       0x2c drivers/net/built-in.o
 .text.dm9000_inblk_16bit
                0x000316a4       0x3c drivers/net/built-in.o
 .text.dm9000_inblk_32bit
                0x000316e0       0x34 drivers/net/built-in.o
 .text.dm9000_rx_status_32bit
                0x00031714       0x28 drivers/net/built-in.o
 .text.dm9000_rx_status_16bit
                0x0003173c       0x24 drivers/net/built-in.o
 .text.dm9000_rx_status_8bit
                0x00031760       0x44 drivers/net/built-in.o
 .text.dm9000_reset
                0x000317a4       0xc8 drivers/net/built-in.o
 .text.dm9000_rx
                0x0003186c      0x150 drivers/net/built-in.o
 .text.dm9000_halt
                0x000319bc       0x88 drivers/net/built-in.o
 .text.dm9000_phy_read
                0x00031a44       0x68 drivers/net/built-in.o
 .text.dm9000_init
                0x00031aac      0x3a0 drivers/net/built-in.o
 .text.dm9000_read_srom_word
                0x00031e4c       0x70 drivers/net/built-in.o
                0x00031e4c                dm9000_read_srom_word
 .text.dm9000_initialize
                0x00031ebc       0x84 drivers/net/built-in.o
                0x00031ebc                dm9000_initialize
 .text.dm9000_send
                0x00031f40       0xe0 drivers/net/built-in.o
 .text.serial_null
                0x00032020        0x4 drivers/serial/built-in.o
                0x00032020                jz_serial_initialize
                0x00032020                bfin_serial_initialize
                0x00032020                p3mx_serial_initialize
                0x00032020                leon2_serial_initialize
                0x00032020                leon3_serial_initialize
                0x00032020                stm32_serial_initialize
                0x00032020                amirix_serial_initialize
                0x00032020                marvell_serial_initialize
                0x00032020                cpci750_serial_initialize
                0x00032020                ns16550_serial_initialize
                0x00032020                asc_serial_initialize
                0x00032020                oc_serial_initialize
                0x00032020                sh_serial_initialize
                0x00032020                mxs_auart_initialize
                0x00032020                arm_dcc_initialize
                0x00032020                bmw_serial_initialize
                0x00032020                arc_serial_initialize
                0x00032020                mcf_serial_initialize
                0x00032020                lh7a40x_serial_initialize
                0x00032020                evb64260_serial_initialize
                0x00032020                lpc32xx_serial_initialize
                0x00032020                max3100_serial_initialize
                0x00032020                mpc85xx_serial_initialize
                0x00032020                imx_serial_initialize
                0x00032020                bfin_jtag_initialize
                0x00032020                cogent_serial_initialize
                0x00032020                clps7111_serial_initialize
                0x00032020                ml2_serial_initialize
                0x00032020                sandbox_serial_initialize
                0x00032020                sconsole_serial_initialize
                0x00032020                uartlite_serial_initialize
                0x00032020                au1x00_serial_initialize
                0x00032020                pxa_serial_initialize
                0x00032020                atmel_serial_initialize
                0x00032020                pl01x_serial_initialize
                0x00032020                mpc512x_serial_initialize
                0x00032020                s5p_serial_initialize
                0x00032020                zynq_serial_initialize
                0x00032020                sa1100_serial_initialize
                0x00032020                mpc8260_scc_serial_initialize
                0x00032020                mxc_serial_initialize
                0x00032020                iop480_serial_initialize
                0x00032020                mpc8xx_serial_initialize
                0x00032020                mpc8260_smc_serial_initialize
                0x00032020                mpc5xx_serial_initialize
 .text.serial_register
                0x00032024       0x18 drivers/serial/built-in.o
                0x00032024                serial_register
 .text.serial_stub_start
                0x0003203c       0x14 drivers/serial/built-in.o
 .text.serial_stub_stop
                0x00032050       0x14 drivers/serial/built-in.o
 .text.serial_stub_putc
                0x00032064       0x18 drivers/serial/built-in.o
 .text.serial_stub_puts
                0x0003207c       0x18 drivers/serial/built-in.o
 .text.serial_stub_getc
                0x00032094       0x14 drivers/serial/built-in.o
                0x00032094                serial_stub_getc
 .text.serial_stub_tstc
                0x000320a8       0x14 drivers/serial/built-in.o
                0x000320a8                serial_stub_tstc
 .text.get_current
                0x000320bc       0x3c drivers/serial/built-in.o
 .text.serial_puts
                0x000320f8       0x20 drivers/serial/built-in.o
                0x000320f8                serial_puts
 .text.serial_putc
                0x00032118       0x20 drivers/serial/built-in.o
                0x00032118                serial_putc
 .text.serial_tstc
                0x00032138       0x14 drivers/serial/built-in.o
                0x00032138                serial_tstc
 .text.serial_getc
                0x0003214c       0x14 drivers/serial/built-in.o
                0x0003214c                serial_getc
 .text.serial_setbrg
                0x00032160       0x14 drivers/serial/built-in.o
                0x00032160                serial_setbrg
 .text.on_baudrate
                0x00032174       0xfc drivers/serial/built-in.o
 .text.serial_init
                0x00032270       0x20 drivers/serial/built-in.o
                0x00032270                serial_init
 .text.serial_assign
                0x00032290       0x50 drivers/serial/built-in.o
                0x00032290                serial_assign
 .text.serial_initialize
                0x000322e0       0xc8 drivers/serial/built-in.o
                0x000322e0                serial_initialize
 .text.serial_stdio_init
                0x000323a8       0xac drivers/serial/built-in.o
                0x000323a8                serial_stdio_init
 .text.s3serial0_getc
                0x00032454       0x28 drivers/serial/built-in.o
                0x00032454                s3serial0_getc
 .text.s3serial0_tstc
                0x0003247c       0x14 drivers/serial/built-in.o
                0x0003247c                s3serial0_tstc
 .text.s3serial1_getc
                0x00032490       0x28 drivers/serial/built-in.o
                0x00032490                s3serial1_getc
 .text.s3serial1_tstc
                0x000324b8       0x14 drivers/serial/built-in.o
                0x000324b8                s3serial1_tstc
 .text.s3serial2_getc
                0x000324cc       0x28 drivers/serial/built-in.o
                0x000324cc                s3serial2_getc
 .text.s3serial2_tstc
                0x000324f4       0x14 drivers/serial/built-in.o
                0x000324f4                s3serial2_tstc
 .text.default_serial_console
                0x00032508        0xc drivers/serial/built-in.o
                0x00032508                default_serial_console
 .text.s3c24xx_serial_initialize
                0x00032514       0x2c drivers/serial/built-in.o
                0x00032514                s3c24xx_serial_initialize
 .text.s3serial2_puts
                0x00032540       0x50 drivers/serial/built-in.o
                0x00032540                s3serial2_puts
 .text.s3serial1_puts
                0x00032590       0x50 drivers/serial/built-in.o
                0x00032590                s3serial1_puts
 .text.s3serial0_puts
                0x000325e0       0x50 drivers/serial/built-in.o
                0x000325e0                s3serial0_puts
 .text.s3serial2_putc
                0x00032630       0x38 drivers/serial/built-in.o
                0x00032630                s3serial2_putc
 .text.s3serial1_putc
                0x00032668       0x38 drivers/serial/built-in.o
                0x00032668                s3serial1_putc
 .text.s3serial0_putc
                0x000326a0       0x38 drivers/serial/built-in.o
                0x000326a0                s3serial0_putc
 .text._serial_setbrg
                0x000326d8       0x2c drivers/serial/built-in.o
 .text.s3serial2_setbrg
                0x00032704        0x8 drivers/serial/built-in.o
                0x00032704                s3serial2_setbrg
 .text.s3serial1_setbrg
                0x0003270c        0x8 drivers/serial/built-in.o
                0x0003270c                s3serial1_setbrg
 .text.s3serial0_setbrg
                0x00032714        0x8 drivers/serial/built-in.o
                0x00032714                s3serial0_setbrg
 .text.serial_init_dev
                0x0003271c       0x3c drivers/serial/built-in.o
 .text.s3serial2_init
                0x00032758        0x8 drivers/serial/built-in.o
                0x00032758                s3serial2_init
 .text.s3serial1_init
                0x00032760        0x8 drivers/serial/built-in.o
                0x00032760                s3serial1_init
 .text.s3serial0_init
                0x00032768        0x8 drivers/serial/built-in.o
                0x00032768                s3serial0_init
 .text.submit_int_msg
                0x00032770        0x8 drivers/usb/host/built-in.o
                0x00032770                submit_int_msg
 .text.T.180    0x00032778       0xc4 drivers/usb/host/built-in.o
 .text.usb_lowlevel_init
                0x0003283c      0x29c drivers/usb/host/built-in.o
                0x0003283c                usb_lowlevel_init
 .text.usb_lowlevel_stop
                0x00032ad8       0x34 drivers/usb/host/built-in.o
                0x00032ad8                usb_lowlevel_stop
 .text.T.181    0x00032b0c       0x8c drivers/usb/host/built-in.o
 .text.sohci_submit_job
                0x00032b98      0x61c drivers/usb/host/built-in.o
                0x00032b98                sohci_submit_job
 .text.submit_common_msg
                0x000331b4      0x548 drivers/usb/host/built-in.o
                0x000331b4                submit_common_msg
 .text.submit_control_msg
                0x000336fc      0x6fc drivers/usb/host/built-in.o
                0x000336fc                submit_control_msg
 .text.fs_ls_unsupported
                0x00033df8        0x8 fs/built-in.o
 .text.fs_exists_unsupported
                0x00033e00        0x8 fs/built-in.o
 .text.fs_size_unsupported
                0x00033e08        0x8 fs/built-in.o
 .text.fs_read_unsupported
                0x00033e10        0x8 fs/built-in.o
 .text.fs_write_unsupported
                0x00033e18        0x8 fs/built-in.o
 .text.fs_close_unsupported
                0x00033e20        0x4 fs/built-in.o
 .text.fs_uuid_unsupported
                0x00033e24        0x8 fs/built-in.o
 .text.fs_close
                0x00033e2c       0x40 fs/built-in.o
 .text.fs_exists
                0x00033e6c       0x44 fs/built-in.o
                0x00033e6c                fs_exists
 .text.fs_probe_unsupported
                0x00033eb0       0x18 fs/built-in.o
 .text.fs_set_blk_dev
                0x00033ec8       0xb0 fs/built-in.o
                0x00033ec8                fs_set_blk_dev
 .text.file_exists
                0x00033f78       0x2c fs/built-in.o
                0x00033f78                file_exists
 .text.ubifs_close
                0x00033fa4        0x4 fs/built-in.o
                0x00033fa4                ubifs_close
 .text.uboot_ubifs_umount
                0x00033fa8       0x44 fs/built-in.o
                0x00033fa8                uboot_ubifs_umount
 .text.ubifs_decompress
                0x00033fec       0x8c fs/built-in.o
                0x00033fec                ubifs_decompress
 .text.ubifs_findfile
                0x00034078      0x364 fs/built-in.o
 .text.ubifs_size
                0x000343dc       0xa0 fs/built-in.o
                0x000343dc                ubifs_size
 .text.ubifs_exists
                0x0003447c       0x50 fs/built-in.o
                0x0003447c                ubifs_exists
 .text.ubifs_ls
                0x000344cc      0x538 fs/built-in.o
                0x000344cc                ubifs_ls
 .text.kmemdup  0x00034a04       0x30 fs/built-in.o
                0x00034a04                kmemdup
 .text.compr_init
                0x00034a34       0x9c fs/built-in.o
 .text.ubifs_compressors_init
                0x00034ad0       0x3c fs/built-in.o
                0x00034ad0                ubifs_compressors_init
 .text.read_block
                0x00034b0c      0x12c fs/built-in.o
 .text.ubifs_read
                0x00034c38      0x3f8 fs/built-in.o
                0x00034c38                ubifs_read
 .text.ubifs_load
                0x00035030       0x80 fs/built-in.o
                0x00035030                ubifs_load
 .text.ubifs_set_blk_dev
                0x000350b0       0x24 fs/built-in.o
                0x000350b0                ubifs_set_blk_dev
 .text.gzip_decompress
                0x000350d4       0x28 fs/built-in.o
 .text.ubifs_wbuf_seek_nolock
                0x000350fc       0x5c fs/built-in.o
                0x000350fc                ubifs_wbuf_seek_nolock
 .text.ubifs_wbuf_init
                0x00035158       0xa8 fs/built-in.o
                0x00035158                ubifs_wbuf_init
 .text.ubifs_check_node
                0x00035200      0x138 fs/built-in.o
                0x00035200                ubifs_check_node
 .text.ubifs_pad
                0x00035338       0xf4 fs/built-in.o
                0x00035338                ubifs_pad
 .text.ubifs_is_mapped
                0x0003542c        0x8 fs/built-in.o
                0x0003542c                ubifs_is_mapped
 .text.ubifs_leb_unmap
                0x00035434       0x5c fs/built-in.o
                0x00035434                ubifs_leb_unmap
 .text.ubifs_leb_read
                0x00035490       0x10 fs/built-in.o
                0x00035490                ubifs_leb_read
 .text.ubifs_read_node
                0x000354a0       0xb8 fs/built-in.o
                0x000354a0                ubifs_read_node
 .text.ubifs_read_node_wbuf
                0x00035558      0x120 fs/built-in.o
                0x00035558                ubifs_read_node_wbuf
 .text.set_nlink
                0x00035678       0x6c fs/built-in.o
                0x00035678                set_nlink
 .text.ubifs_dirty_inode
                0x000356e4       0x14 fs/built-in.o
 .text.sb_test  0x000356f8       0x20 fs/built-in.o
 .text.sb_set   0x00035718        0xc fs/built-in.o
 .text.ubifs_alloc_inode
                0x00035724       0x34 fs/built-in.o
 .text.kill_ubifs_super
                0x00035758        0x8 fs/built-in.o
 .text.free_wbufs
                0x00035760       0x64 fs/built-in.o
 .text.free_orphans
                0x000357c4       0x94 fs/built-in.o
 .text.ubifs_iput
                0x00035858       0x2c fs/built-in.o
                0x00035858                ubifs_iput
 .text.bud_wbuf_callback
                0x00035884       0x18 fs/built-in.o
 .text.ubifs_init
                0x0003589c       0x24 fs/built-in.o
                0x0003589c                ubifs_init
 .text.sget     0x000358c0       0xa4 fs/built-in.o
                0x000358c0                sget
 .text.ubifs_umount
                0x00035964       0xb4 fs/built-in.o
                0x00035964                ubifs_umount
 .text.iput     0x00035a18       0x58 fs/built-in.o
                0x00035a18                iput
 .text.iget_locked
                0x00035a70       0x50 fs/built-in.o
                0x00035a70                iget_locked
 .text.ubifs_iget
                0x00035ac0      0x478 fs/built-in.o
                0x00035ac0                ubifs_iget
 .text.ubifs_mount
                0x00035f38      0xe58 fs/built-in.o
 .text.uboot_ubifs_mount
                0x00036d90       0x60 fs/built-in.o
                0x00036d90                uboot_ubifs_mount
 .text.key_r5_hash
                0x00036df0       0x48 fs/built-in.o
 .text.key_test_hash
                0x00036e38       0x3c fs/built-in.o
 .text.ubifs_read_sb_node
                0x00036e74       0x6c fs/built-in.o
                0x00036e74                ubifs_read_sb_node
 .text.ubifs_read_superblock
                0x00036ee0      0x67c fs/built-in.o
                0x00036ee0                ubifs_read_superblock
 .text.ubifs_read_master
                0x0003755c      0xc04 fs/built-in.o
                0x0003755c                ubifs_read_master
 .text.do_calc_lpt_geom
                0x00038160      0x490 fs/built-in.o
 .text.ubifs_unpack_bits
                0x000385f0      0x148 fs/built-in.o
                0x000385f0                ubifs_unpack_bits
 .text.ubifs_add_nnode_dirt
                0x00038738       0xc0 fs/built-in.o
                0x00038738                ubifs_add_nnode_dirt
 .text.validate_nnode
                0x000387f8       0xe0 fs/built-in.o
 .text.validate_pnode
                0x000388d8       0xd4 fs/built-in.o
 .text.check_lpt_crc
                0x000389ac       0x58 fs/built-in.o
 .text.unpack_pnode
                0x00038a04      0x114 fs/built-in.o
 .text.ubifs_unpack_nnode
                0x00038b18       0xdc fs/built-in.o
                0x00038b18                ubifs_unpack_nnode
 .text.ubifs_read_nnode
                0x00038bf4      0x180 fs/built-in.o
                0x00038bf4                ubifs_read_nnode
 .text.ubifs_get_nnode
                0x00038d74       0x2c fs/built-in.o
                0x00038d74                ubifs_get_nnode
 .text.ubifs_lpt_init
                0x00038da0      0x214 fs/built-in.o
                0x00038da0                ubifs_lpt_init
 .text.dirty_cow_nnode
                0x00038fb4      0x108 fs/built-in.o
 .text.ubifs_get_pnode
                0x000390bc      0x244 fs/built-in.o
                0x000390bc                ubifs_get_pnode
 .text.ubifs_lpt_lookup_dirty
                0x00039300      0x24c fs/built-in.o
                0x00039300                ubifs_lpt_lookup_dirty
 .text.ubifs_calc_lpt_geom
                0x0003954c       0x94 fs/built-in.o
                0x0003954c                ubifs_calc_lpt_geom
 .text.ubifs_lpt_free
                0x000395e0      0x21c fs/built-in.o
                0x000395e0                ubifs_lpt_free
 .text.ubifs_end_scan
                0x000397fc       0x1c fs/built-in.o
                0x000397fc                ubifs_end_scan
 .text.ubifs_scanned_corruption
                0x00039818        0x4 fs/built-in.o
                0x00039818                ubifs_scanned_corruption
 .text.ubifs_scan_destroy
                0x0003981c       0x4c fs/built-in.o
                0x0003981c                ubifs_scan_destroy
 .text.ubifs_add_snod
                0x00039868       0xec fs/built-in.o
                0x00039868                ubifs_add_snod
 .text.ubifs_start_scan
                0x00039954       0x8c fs/built-in.o
                0x00039954                ubifs_start_scan
 .text.ubifs_scan_a_node
                0x000399e0      0x144 fs/built-in.o
                0x000399e0                ubifs_scan_a_node
 .text.ubifs_scan
                0x00039b24      0x190 fs/built-in.o
                0x00039b24                ubifs_scan
 .text.move_up_lpt_heap
                0x00039cb4       0x80 fs/built-in.o
 .text.adjust_lpt_heap
                0x00039d34      0x1a4 fs/built-in.o
 .text.ubifs_add_to_cat
                0x00039ed8      0x1d4 fs/built-in.o
                0x00039ed8                ubifs_add_to_cat
 .text.ubifs_remove_from_cat
                0x0003a0ac       0xc4 fs/built-in.o
 .text.ubifs_replace_cat
                0x0003a170       0x64 fs/built-in.o
                0x0003a170                ubifs_replace_cat
 .text.ubifs_categorize_lprops
                0x0003a1d4       0x90 fs/built-in.o
                0x0003a1d4                ubifs_categorize_lprops
 .text.ubifs_change_lp
                0x0003a264      0x338 fs/built-in.o
                0x0003a264                ubifs_change_lp
 .text.ubifs_update_one_lp
                0x0003a59c       0x64 fs/built-in.o
                0x0003a59c                ubifs_update_one_lp
 .text.ubifs_change_one_lp
                0x0003a600       0x60 fs/built-in.o
                0x0003a600                ubifs_change_one_lp
 .text.insert_zbranch
                0x0003a660       0xfc fs/built-in.o
 .text.get_znode
                0x0003a75c       0x34 fs/built-in.o
 .text.tnc_next
                0x0003a790       0x98 fs/built-in.o
 .text.tnc_prev
                0x0003a828       0x98 fs/built-in.o
 .text.ubifs_lookup_level0
                0x0003a8c0      0x170 fs/built-in.o
                0x0003a8c0                ubifs_lookup_level0
 .text.lnc_free
                0x0003aa30       0x24 fs/built-in.o
 .text.insert_old_idx
                0x0003aa54       0xa8 fs/built-in.o
 .text.tnc_insert
                0x0003aafc      0x544 fs/built-in.o
 .text.insert_old_idx_znode
                0x0003b040       0x50 fs/built-in.o
                0x0003b040                insert_old_idx_znode
 .text.dirty_cow_znode
                0x0003b090      0x210 fs/built-in.o
 .text.dirty_cow_bottom_up
                0x0003b2a0       0xfc fs/built-in.o
 .text.lookup_level0_dirty
                0x0003b39c      0x1e4 fs/built-in.o
 .text.lnc_add_directly
                0x0003b580       0x34 fs/built-in.o
 .text.matches_name
                0x0003b5b4       0xd0 fs/built-in.o
 .text.resolve_collision
                0x0003b684      0x1d0 fs/built-in.o
 .text.tnc_read_node_nm
                0x0003b854       0x84 fs/built-in.o
 .text.ubifs_tnc_next_ent
                0x0003b8d8      0x11c fs/built-in.o
                0x0003b8d8                ubifs_tnc_next_ent
 .text.tnc_delete
                0x0003b9f4      0x328 fs/built-in.o
 .text.ubifs_tnc_remove_range
                0x0003bd1c      0x2a0 fs/built-in.o
                0x0003bd1c                ubifs_tnc_remove_range
 .text.ubifs_tnc_remove
                0x0003bfbc       0x48 fs/built-in.o
                0x0003bfbc                ubifs_tnc_remove
 .text.ubifs_tnc_add
                0x0003c004       0xf0 fs/built-in.o
                0x0003c004                ubifs_tnc_add
 .text.fallible_read_node
                0x0003c0f4      0x120 fs/built-in.o
 .text.fallible_matches_name
                0x0003c214       0xdc fs/built-in.o
 .text.fallible_resolve_collision
                0x0003c2f0      0x2b0 fs/built-in.o
 .text.ubifs_tnc_remove_nm
                0x0003c5a0       0xdc fs/built-in.o
                0x0003c5a0                ubifs_tnc_remove_nm
 .text.ubifs_tnc_remove_ino
                0x0003c67c      0x150 fs/built-in.o
                0x0003c67c                ubifs_tnc_remove_ino
 .text.ubifs_tnc_add_nm
                0x0003c7cc      0x1ec fs/built-in.o
                0x0003c7cc                ubifs_tnc_add_nm
 .text.ubifs_tnc_locate
                0x0003c9b8      0x138 fs/built-in.o
                0x0003c9b8                ubifs_tnc_locate
 .text.destroy_old_idx
                0x0003caf0       0x40 fs/built-in.o
                0x0003caf0                destroy_old_idx
 .text.ubifs_tnc_close
                0x0003cb30       0x90 fs/built-in.o
                0x0003cb30                ubifs_tnc_close
 .text.ubifs_search_zbranch
                0x0003cbc0       0x78 fs/built-in.o
                0x0003cbc0                ubifs_search_zbranch
 .text.ubifs_tnc_read_node
                0x0003cc38       0xa4 fs/built-in.o
                0x0003cc38                ubifs_tnc_read_node
 .text.ubifs_tnc_postorder_first
                0x0003ccdc       0x4c fs/built-in.o
                0x0003ccdc                ubifs_tnc_postorder_first
 .text.ubifs_tnc_postorder_next
                0x0003cd28       0x54 fs/built-in.o
                0x0003cd28                ubifs_tnc_postorder_next
 .text.ubifs_load_znode
                0x0003cd7c      0x2fc fs/built-in.o
                0x0003cd7c                ubifs_load_znode
 .text.ubifs_destroy_tnc_subtree
                0x0003d078       0x90 fs/built-in.o
                0x0003d078                ubifs_destroy_tnc_subtree
 .text.ubifs_dump_inode
                0x0003d108        0x4 fs/built-in.o
                0x0003d108                ubifs_dump_inode
 .text.ubifs_dump_node
                0x0003d10c       0xbc fs/built-in.o
                0x0003d10c                ubifs_dump_node
 .text.ubifs_dump_znode
                0x0003d1c8        0x4 fs/built-in.o
                0x0003d1c8                ubifs_dump_znode
 .text.ubifs_dump_pnode
                0x0003d1cc        0x4 fs/built-in.o
                0x0003d1cc                ubifs_dump_pnode
 .text.dbg_check_dir
                0x0003d1d0        0x8 fs/built-in.o
                0x0003d1d0                dbg_check_dir
 .text.dbg_debugfs_exit_fs
                0x0003d1d8        0x4 fs/built-in.o
                0x0003d1d8                dbg_debugfs_exit_fs
 .text.ubifs_debugging_init
                0x0003d1dc        0x8 fs/built-in.o
                0x0003d1dc                ubifs_debugging_init
 .text.ubifs_debugging_exit
                0x0003d1e4        0x4 fs/built-in.o
                0x0003d1e4                ubifs_debugging_exit
 .text.dbg_check_filesystem
                0x0003d1e8        0x8 fs/built-in.o
                0x0003d1e8                dbg_check_filesystem
 .text.dbg_debugfs_init_fs
                0x0003d1f0        0x8 fs/built-in.o
                0x0003d1f0                dbg_debugfs_init_fs
 .text.dbg_check_tnc
                0x0003d1f8        0x8 fs/built-in.o
                0x0003d1f8                dbg_check_tnc
 .text.dbg_check_idx_size
                0x0003d200        0x8 fs/built-in.o
                0x0003d200                dbg_check_idx_size
 .text.crc16    0x0003d208       0x40 fs/built-in.o
                0x0003d208                crc16
 .text.ubifs_reported_space
                0x0003d248       0x70 fs/built-in.o
                0x0003d248                ubifs_reported_space
 .text.ubifs_calc_min_idx_lebs
                0x0003d2b8       0x90 fs/built-in.o
                0x0003d2b8                ubifs_calc_min_idx_lebs
 .text.ubifs_search_bud
                0x0003d348       0x34 fs/built-in.o
                0x0003d348                ubifs_search_bud
 .text.ubifs_get_wbuf
                0x0003d37c       0x4c fs/built-in.o
                0x0003d37c                ubifs_get_wbuf
 .text.ubifs_add_bud
                0x0003d3c8       0xb0 fs/built-in.o
                0x0003d3c8                ubifs_add_bud
 .text.ubifs_clear_orphans
                0x0003d478       0x48 fs/built-in.o
                0x0003d478                ubifs_clear_orphans
 .text.ubifs_mount_orphans
                0x0003d4c0      0x3fc fs/built-in.o
                0x0003d4c0                ubifs_mount_orphans
 .text.ubifs_recover_size
                0x0003d8bc      0x1bc fs/built-in.o
                0x0003d8bc                ubifs_recover_size
 .text.add_ino  0x0003da78       0xa4 fs/built-in.o
 .text.ubifs_recover_size_accum
                0x0003db1c      0x188 fs/built-in.o
                0x0003db1c                ubifs_recover_size_accum
 .text.ubifs_destroy_size_tree
                0x0003dca4       0x54 fs/built-in.o
                0x0003dca4                ubifs_destroy_size_tree
 .text.get_master_node
                0x0003dcf8      0x22c fs/built-in.o
 .text.ubifs_recover_leb
                0x0003df24      0x50c fs/built-in.o
                0x0003df24                ubifs_recover_leb
 .text.ubifs_recover_log_leb
                0x0003e430      0x214 fs/built-in.o
                0x0003e430                ubifs_recover_log_leb
 .text.ubifs_recover_master_node
                0x0003e644      0x20c fs/built-in.o
                0x0003e644                ubifs_recover_master_node
 .text.replay_entries_cmp
                0x0003e850       0x40 fs/built-in.o
 .text.insert_node
                0x0003e890       0xe0 fs/built-in.o
 .text.ubifs_validate_entry
                0x0003e970       0xbc fs/built-in.o
                0x0003e970                ubifs_validate_entry
 .text.ubifs_replay_journal
                0x0003ea2c      0xf20 fs/built-in.o
                0x0003ea2c                ubifs_replay_journal
 .text.ubifs_destroy_idx_gc
                0x0003f94c       0x50 fs/built-in.o
                0x0003f94c                ubifs_destroy_idx_gc
 .text.yaffs_free_raw_obj
                0x0003f99c       0x6c fs/built-in.o
                0x0003f99c                yaffs_free_raw_obj
 .text.yaffs_free_raw_tnode
                0x0003fa08       0x60 fs/built-in.o
                0x0003fa08                yaffs_free_raw_tnode
 .text.yaffs_init_raw_tnodes_and_objs
                0x0003fa68       0x84 fs/built-in.o
                0x0003fa68                yaffs_init_raw_tnodes_and_objs
 .text.yaffs_deinit_raw_tnodes_and_objs
                0x0003faec       0xe0 fs/built-in.o
                0x0003faec                yaffs_deinit_raw_tnodes_and_objs
 .text.yaffs_alloc_raw_obj
                0x0003fbcc      0x148 fs/built-in.o
                0x0003fbcc                yaffs_alloc_raw_obj
 .text.yaffs_alloc_raw_tnode
                0x0003fd14      0x14c fs/built-in.o
                0x0003fd14                yaffs_alloc_raw_tnode
 .text.yaffs_load_attribs
                0x0003fe60       0x34 fs/built-in.o
                0x0003fe60                yaffs_load_attribs
 .text.yaffs_load_attribs_oh
                0x0003fe94       0x34 fs/built-in.o
                0x0003fe94                yaffs_load_attribs_oh
 .text.yaffs_load_current_time
                0x0003fec8       0x24 fs/built-in.o
                0x0003fec8                yaffs_load_current_time
 .text.yaffs_attribs_init
                0x0003feec       0x30 fs/built-in.o
                0x0003feec                yaffs_attribs_init
 .text.yaffs_count_chunk_bits
                0x0003ff1c       0xc0 fs/built-in.o
                0x0003ff1c                yaffs_count_chunk_bits
 .text.yaffs_still_some_chunks
                0x0003ffdc       0xa4 fs/built-in.o
                0x0003ffdc                yaffs_still_some_chunks
 .text.yaffs_verify_chunk_bit_id
                0x00040080       0x7c fs/built-in.o
                0x00040080                yaffs_verify_chunk_bit_id
 .text.yaffs_check_chunk_bit
                0x000400fc       0xa4 fs/built-in.o
                0x000400fc                yaffs_check_chunk_bit
 .text.yaffs_set_chunk_bit
                0x000401a0       0xa8 fs/built-in.o
                0x000401a0                yaffs_set_chunk_bit
 .text.yaffs_clear_chunk_bit
                0x00040248       0xa8 fs/built-in.o
                0x00040248                yaffs_clear_chunk_bit
 .text.yaffs_clear_chunk_bits
                0x000402f0       0x80 fs/built-in.o
                0x000402f0                yaffs_clear_chunk_bits
 .text.yaffsfs_SetError
                0x00040370       0x10 fs/built-in.o
                0x00040370                yaffsfs_SetError
 .text.yaffsfs_Lock
                0x00040380        0x4 fs/built-in.o
                0x00040380                yaffsfs_Lock
 .text.yaffsfs_Unlock
                0x00040384        0x4 fs/built-in.o
                0x00040384                yaffsfs_Unlock
 .text.yaffsfs_CurrentTime
                0x00040388        0x8 fs/built-in.o
                0x00040388                yaffsfs_CurrentTime
 .text.cmd_yaffs_mv
                0x00040390       0x58 fs/built-in.o
                0x00040390                cmd_yaffs_mv
 .text.cmd_yaffs_tracemask
                0x000403e8       0x24 fs/built-in.o
                0x000403e8                cmd_yaffs_tracemask
 .text.cmd_yaffs_rm
                0x0004040c       0x4c fs/built-in.o
                0x0004040c                cmd_yaffs_rm
 .text.cmd_yaffs_rmdir
                0x00040458       0x4c fs/built-in.o
                0x00040458                cmd_yaffs_rmdir
 .text.cmd_yaffs_mkdir
                0x000404a4       0x50 fs/built-in.o
                0x000404a4                cmd_yaffs_mkdir
 .text.cmd_yaffs_ls
                0x000404f4      0x12c fs/built-in.o
                0x000404f4                cmd_yaffs_ls
 .text.cmd_yaffs_mwrite_file
                0x00040620       0x7c fs/built-in.o
                0x00040620                cmd_yaffs_mwrite_file
 .text.cmd_yaffs_mread_file
                0x0004069c       0x7c fs/built-in.o
                0x0004069c                cmd_yaffs_mread_file
 .text.read_a_file
                0x00040718       0x84 fs/built-in.o
                0x00040718                read_a_file
 .text.cmd_yaffs_read_file
                0x0004079c        0x4 fs/built-in.o
                0x0004079c                cmd_yaffs_read_file
 .text.cmd_yaffs_umount
                0x000407a0       0x54 fs/built-in.o
                0x000407a0                cmd_yaffs_umount
 .text.cmd_yaffs_mount
                0x000407f4       0x54 fs/built-in.o
                0x000407f4                cmd_yaffs_mount
 .text.make_a_file
                0x00040848       0xb0 fs/built-in.o
                0x00040848                make_a_file
 .text.cmd_yaffs_write_file
                0x000408f8        0x4 fs/built-in.o
                0x000408f8                cmd_yaffs_write_file
 .text.cmd_yaffs_dev_ls
                0x000408fc       0x94 fs/built-in.o
                0x000408fc                cmd_yaffs_dev_ls
 .text.cmd_yaffs_devconfig
                0x00040990      0x26c fs/built-in.o
                0x00040990                cmd_yaffs_devconfig
 .text.yaffs2_get_checkpt_sum
                0x00040bfc       0x18 fs/built-in.o
                0x00040bfc                yaffs2_get_checkpt_sum
 .text.yaffs2_checkpt_rd
                0x00040c14      0x264 fs/built-in.o
                0x00040c14                yaffs2_checkpt_rd
 .text.yaffs_checkpt_erase
                0x00040e78      0x164 fs/built-in.o
 .text.yaffs2_checkpt_invalidate_stream
                0x00040fdc       0x34 fs/built-in.o
                0x00040fdc                yaffs2_checkpt_invalidate_stream
 .text.yaffs2_checkpt_flush_buffer
                0x00041010      0x284 fs/built-in.o
 .text.yaffs2_checkpt_wr
                0x00041294       0xbc fs/built-in.o
                0x00041294                yaffs2_checkpt_wr
 .text.yaffs_checkpt_close
                0x00041350      0x10c fs/built-in.o
                0x00041350                yaffs_checkpt_close
 .text.yaffs2_checkpt_open
                0x0004145c      0x15c fs/built-in.o
                0x0004145c                yaffs2_checkpt_open
 .text.yaffs_ecc_calc
                0x000415b8       0xf8 fs/built-in.o
                0x000415b8                yaffs_ecc_calc
 .text.yaffs_ecc_correct
                0x000416b0      0x178 fs/built-in.o
                0x000416b0                yaffs_ecc_correct
 .text.yaffs_ecc_calc_other
                0x00041828       0x5c fs/built-in.o
                0x00041828                yaffs_ecc_calc_other
 .text.yaffs_ecc_correct_other
                0x00041884      0x1ac fs/built-in.o
                0x00041884                yaffs_ecc_correct_other
 .text.yaffsfs_HandleToObject
                0x00041a30       0x94 fs/built-in.o
 .text.yaffsfs_FindDevice
                0x00041ac4      0x214 fs/built-in.o
 .text.yaffsfs_CheckPath
                0x00041cd8       0x8c fs/built-in.o
 .text.yaffsfs_FindMountPoint
                0x00041d64       0x38 fs/built-in.o
 .text.yaffs_add_device
                0x00041d9c       0x70 fs/built-in.o
                0x00041d9c                yaffs_add_device
 .text.yaffs_dev_rewind
                0x00041e0c       0x1c fs/built-in.o
                0x00041e0c                yaffs_dev_rewind
 .text.yaffs_next_dev
                0x00041e28       0x3c fs/built-in.o
                0x00041e28                yaffs_next_dev
 .text.yaffsfs_RemoveObjectCallback
                0x00041e64       0x9c fs/built-in.o
 .text.yaffsfs_FindInodeIdForObject
                0x00041f00       0x58 fs/built-in.o
 .text.yaffsfs_DoFindDirectory
                0x00041f58      0x1bc fs/built-in.o
 .text.yaffsfs_FindObject
                0x00042114       0x5c fs/built-in.o
 .text.yaffsfs_FollowLink
                0x00042170       0xb0 fs/built-in.o
 .text.yaffs_closedir
                0x00042220       0x54 fs/built-in.o
                0x00042220                yaffs_closedir
 .text.yaffsfs_NewHandle
                0x00042274       0x68 fs/built-in.o
 .text.yaffs_opendir
                0x000422dc      0x1dc fs/built-in.o
                0x000422dc                yaffs_opendir
 .text.yaffs_readdir
                0x000424b8      0x124 fs/built-in.o
                0x000424b8                yaffs_readdir
 .text.yaffs_freespace
                0x000425dc       0xa0 fs/built-in.o
                0x000425dc                yaffs_freespace
 .text.yaffsfs_PutInode
                0x0004267c       0x58 fs/built-in.o
 .text.yaffs_unmount2
                0x000426d4      0x1b4 fs/built-in.o
                0x000426d4                yaffs_unmount2
 .text.yaffs_unmount
                0x00042888        0x8 fs/built-in.o
                0x00042888                yaffs_unmount
 .text.yaffsfs_PutHandle
                0x00042890       0xd4 fs/built-in.o
 .text.yaffs_mount_common
                0x00042964      0x170 fs/built-in.o
                0x00042964                yaffs_mount_common
 .text.yaffs_mount
                0x00042ad4        0xc fs/built-in.o
                0x00042ad4                yaffs_mount
 .text.yaffsfs_alt_dir_path
                0x00042ae0       0xd0 fs/built-in.o
 .text.yaffs_mkdir
                0x00042bb0      0x178 fs/built-in.o
                0x00042bb0                yaffs_mkdir
 .text.yaffs_close
                0x00042d28       0x6c fs/built-in.o
                0x00042d28                yaffs_close
 .text.yaffsfs_DoStat
                0x00042d94      0x114 fs/built-in.o
 .text.yaffsfs_DoStatOrLStat
                0x00042ea8      0x11c fs/built-in.o
 .text.yaffs_lstat
                0x00042fc4        0x8 fs/built-in.o
                0x00042fc4                yaffs_lstat
 .text.yaffs_stat
                0x00042fcc        0x8 fs/built-in.o
                0x00042fcc                yaffs_stat
 .text.yaffs_rename
                0x00042fd4      0x290 fs/built-in.o
                0x00042fd4                yaffs_rename
 .text.yaffsfs_DoUnlink
                0x00043264      0x1b8 fs/built-in.o
                0x00043264                yaffsfs_DoUnlink
 .text.yaffs_rmdir
                0x0004341c       0x6c fs/built-in.o
                0x0004341c                yaffs_rmdir
 .text.yaffs_unlink
                0x00043488        0x8 fs/built-in.o
                0x00043488                yaffs_unlink
 .text.yaffsfs_do_write
                0x00043490      0x274 fs/built-in.o
                0x00043490                yaffsfs_do_write
 .text.yaffs_write
                0x00043704       0x1c fs/built-in.o
                0x00043704                yaffs_write
 .text.yaffsfs_do_read
                0x00043720      0x278 fs/built-in.o
                0x00043720                yaffsfs_do_read
 .text.yaffs_read
                0x00043998       0x1c fs/built-in.o
                0x00043998                yaffs_read
 .text.yaffs_open_sharing
                0x000439b4      0x678 fs/built-in.o
                0x000439b4                yaffs_open_sharing
 .text.yaffs_open
                0x0004402c        0x8 fs/built-in.o
                0x0004402c                yaffs_open
 .text.yaffs_addr_to_chunk
                0x00044034       0x5c fs/built-in.o
                0x00044034                yaffs_addr_to_chunk
 .text.yaffs_load_tnode_0
                0x00044090       0x70 fs/built-in.o
                0x00044090                yaffs_load_tnode_0
 .text.yaffs_get_group_base
                0x00044100       0x48 fs/built-in.o
                0x00044100                yaffs_get_group_base
 .text.yaffs_find_tnode_0
                0x00044148       0x80 fs/built-in.o
                0x00044148                yaffs_find_tnode_0
 .text.yaffs_find_by_number
                0x000441c8       0x5c fs/built-in.o
                0x000441c8                yaffs_find_by_number
 .text.yaffs_is_non_empty_dir
                0x00044224       0x30 fs/built-in.o
                0x00044224                yaffs_is_non_empty_dir
 .text.yaffs_link_fixup
                0x00044254       0x68 fs/built-in.o
                0x00044254                yaffs_link_fixup
 .text.yaffs_get_obj_link_count
                0x000442bc       0x30 fs/built-in.o
                0x000442bc                yaffs_get_obj_link_count
 .text.yaffs_count_free_chunks
                0x000442ec       0x70 fs/built-in.o
                0x000442ec                yaffs_count_free_chunks
 .text.yaffs_oh_to_size
                0x0004435c       0x3c fs/built-in.o
                0x0004435c                yaffs_oh_to_size
 .text.yaffs_get_n_free_chunks
                0x00044398       0x7c fs/built-in.o
                0x00044398                yaffs_get_n_free_chunks
 .text.yaffs_check_alloc_available
                0x00044414       0x34 fs/built-in.o
                0x00044414                yaffs_check_alloc_available
 .text.yaffs_deinit_blocks
                0x00044448       0x74 fs/built-in.o
 .text.yaffs_deinitialise
                0x000444bc       0xe0 fs/built-in.o
                0x000444bc                yaffs_deinitialise
 .text.yaffs_handle_chunk_error
                0x0004459c       0x6c fs/built-in.o
                0x0004459c                yaffs_handle_chunk_error
 .text.yaffs_release_temp_buffer
                0x00044608       0x90 fs/built-in.o
                0x00044608                yaffs_release_temp_buffer
 .text.yaffs_get_temp_buffer
                0x00044698       0x9c fs/built-in.o
                0x00044698                yaffs_get_temp_buffer
 .text.yaffs_init_blocks
                0x00044734      0x114 fs/built-in.o
 .text.yaffs_check_chunk_erased
                0x00044848       0xbc fs/built-in.o
 .text.yaffs_skip_rest_of_block
                0x00044904       0xa0 fs/built-in.o
                0x00044904                yaffs_skip_rest_of_block
 .text.yaffs_remove_obj_from_dir
                0x000449a4       0x68 fs/built-in.o
 .text.yaffs_add_obj_to_dir
                0x00044a0c      0x130 fs/built-in.o
                0x00044a0c                yaffs_add_obj_to_dir
 .text.yaffs_free_obj
                0x00044b3c      0x128 fs/built-in.o
 .text.yaffs_clone_str
                0x00044c64       0x54 fs/built-in.o
                0x00044c64                yaffs_clone_str
 .text.yaffs_set_obj_name
                0x00044cb8       0xb8 fs/built-in.o
                0x00044cb8                yaffs_set_obj_name
 .text.yaffs_set_obj_name_from_oh
                0x00044d70        0x8 fs/built-in.o
                0x00044d70                yaffs_set_obj_name_from_oh
 .text.yaffs_check_obj_details_loaded
                0x00044d78       0xa0 fs/built-in.o
 .text.yaffs_get_equivalent_obj
                0x00044e18       0x28 fs/built-in.o
                0x00044e18                yaffs_get_equivalent_obj
 .text.yaffs_get_obj_length
                0x00044e40       0x60 fs/built-in.o
                0x00044e40                yaffs_get_obj_length
 .text.yaffs_get_obj_name
                0x00044ea0      0x158 fs/built-in.o
                0x00044ea0                yaffs_get_obj_name
 .text.yaffs_find_by_name
                0x00044ff8      0x1a0 fs/built-in.o
                0x00044ff8                yaffs_find_by_name
 .text.yaffs_free_tnode
                0x00045198       0x24 fs/built-in.o
 .text.yaffs_soft_del_worker
                0x000451bc      0x1a8 fs/built-in.o
 .text.yaffs_prune_worker
                0x00045364       0xe8 fs/built-in.o
 .text.yaffs_find_chunk_in_group
                0x0004544c       0xc0 fs/built-in.o
 .text.yaffs_find_chunk_in_file
                0x0004550c       0x64 fs/built-in.o
 .text.yaffs_rd_data_obj
                0x00045570       0x68 fs/built-in.o
 .text.yaffs_block_became_dirty
                0x000455d8      0x3e8 fs/built-in.o
                0x000455d8                yaffs_block_became_dirty
 .text.yaffs_chunk_del
                0x000459c0      0x230 fs/built-in.o
                0x000459c0                yaffs_chunk_del
 .text.yaffs_write_new_chunk
                0x00045bf0      0x530 fs/built-in.o
 .text.yaffs_get_tnode
                0x00046120       0x3c fs/built-in.o
                0x00046120                yaffs_get_tnode
 .text.yaffs_new_obj
                0x0004615c      0x2a0 fs/built-in.o
                0x0004615c                yaffs_new_obj
 .text.yaffs_create_fake_dir
                0x000463fc       0x6c fs/built-in.o
 .text.yaffs_create_initial_dir
                0x00046468       0xb0 fs/built-in.o
 .text.yaffs_find_or_create_by_number
                0x00046518       0x34 fs/built-in.o
                0x00046518                yaffs_find_or_create_by_number
 .text.yaffs_handle_shadowed_obj
                0x0004654c       0x70 fs/built-in.o
                0x0004654c                yaffs_handle_shadowed_obj
 .text.yaffs_add_find_tnode_0
                0x000465bc      0x17c fs/built-in.o
                0x000465bc                yaffs_add_find_tnode_0
 .text.yaffs_put_chunk_in_file
                0x00046738      0x1c4 fs/built-in.o
                0x00046738                yaffs_put_chunk_in_file
 .text.yaffs_check_gc
                0x000468fc      0xbc8 fs/built-in.o
 .text.yaffs_update_oh
                0x000474c4      0x4c4 fs/built-in.o
                0x000474c4                yaffs_update_oh
 .text.yaffs_update_parent
                0x00047988       0xac fs/built-in.o
 .text.yaffs_change_obj_name
                0x00047a34      0x140 fs/built-in.o
 .text.yaffs_generic_obj_del
                0x00047b74       0xb4 fs/built-in.o
 .text.yaffs_del_symlink
                0x00047c28       0x24 fs/built-in.o
 .text.yaffs_soft_del_file
                0x00047c4c       0x90 fs/built-in.o
 .text.yaffs_wr_data_obj
                0x00047cdc      0x158 fs/built-in.o
 .text.yaffs_flush_file_cache
                0x00047e34       0xe8 fs/built-in.o
 .text.yaffs_grab_chunk_cache
                0x00047f1c      0x11c fs/built-in.o
 .text.yaffs_file_rd
                0x00048038      0x24c fs/built-in.o
                0x00048038                yaffs_file_rd
 .text.yaffs_flush_whole_cache
                0x00048284       0x74 fs/built-in.o
                0x00048284                yaffs_flush_whole_cache
 .text.yaffs_flush_file
                0x000482f8       0x70 fs/built-in.o
                0x000482f8                yaffs_flush_file
 .text.yaffs_resize_file_down
                0x00048368      0x2f4 fs/built-in.o
                0x00048368                yaffs_resize_file_down
 .text.yaffs_resize_file
                0x0004865c      0x118 fs/built-in.o
                0x0004865c                yaffs_resize_file
 .text.yaffs_del_file
                0x00048774      0x17c fs/built-in.o
                0x00048774                yaffs_del_file
 .text.yaffs_unlink_worker
                0x000488f0      0x198 fs/built-in.o
 .text.yaffs_del_dir_contents
                0x00048a88       0xb0 fs/built-in.o
 .text.yaffs_rename_obj
                0x00048b38      0x19c fs/built-in.o
                0x00048b38                yaffs_rename_obj
 .text.yaffs_unlinker
                0x00048cd4       0x2c fs/built-in.o
                0x00048cd4                yaffs_unlinker
 .text.yaffs_del_obj
                0x00048d00       0xec fs/built-in.o
                0x00048d00                yaffs_del_obj
 .text.yaffs_guts_initialise
                0x00048dec      0x978 fs/built-in.o
                0x00048dec                yaffs_guts_initialise
 .text.yaffs_create_obj
                0x00049764      0x15c fs/built-in.o
 .text.yaffs_create_dir
                0x000498c0       0x44 fs/built-in.o
                0x000498c0                yaffs_create_dir
 .text.yaffs_create_file
                0x00049904       0x44 fs/built-in.o
                0x00049904                yaffs_create_file
 .text.yaffs_do_file_wr
                0x00049948      0x4b0 fs/built-in.o
                0x00049948                yaffs_do_file_wr
 .text.yaffs_wr_file
                0x00049df8       0x40 fs/built-in.o
                0x00049df8                yaffs_wr_file
 .text.nval_used
                0x00049e38       0x70 fs/built-in.o
 .text.nval_hasvalues
                0x00049ea8       0x18 fs/built-in.o
                0x00049ea8                nval_hasvalues
 .text.nval_find
                0x00049ec0       0xc0 fs/built-in.o
 .text.nval_del
                0x00049f80       0x7c fs/built-in.o
                0x00049f80                nval_del
 .text.nval_set
                0x00049ffc      0x104 fs/built-in.o
                0x00049ffc                nval_set
 .text.yaffs_erase_block
                0x0004a100       0x24 fs/built-in.o
                0x0004a100                yaffs_erase_block
 .text.yaffs_init_nand
                0x0004a124       0x20 fs/built-in.o
                0x0004a124                yaffs_init_nand
 .text.yaffs_query_init_block_state
                0x0004a144       0x2c fs/built-in.o
                0x0004a144                yaffs_query_init_block_state
 .text.yaffs_mark_bad
                0x0004a170       0x2c fs/built-in.o
                0x0004a170                yaffs_mark_bad
 .text.yaffs_wr_chunk_tags_nand
                0x0004a19c       0xf4 fs/built-in.o
                0x0004a19c                yaffs_wr_chunk_tags_nand
 .text.yaffs_rd_chunk_tags_nand
                0x0004a290       0xf8 fs/built-in.o
                0x0004a290                yaffs_rd_chunk_tags_nand
 .text.yaffs_pack_tags2_tags_only
                0x0004a388      0x160 fs/built-in.o
                0x0004a388                yaffs_pack_tags2_tags_only
 .text.yaffs_pack_tags2
                0x0004a4e8       0x2c fs/built-in.o
                0x0004a4e8                yaffs_pack_tags2
 .text.yaffs_unpack_tags2_tags_only
                0x0004a514      0x12c fs/built-in.o
                0x0004a514                yaffs_unpack_tags2_tags_only
 .text.yaffs_unpack_tags2
                0x0004a640       0xfc fs/built-in.o
                0x0004a640                yaffs_unpack_tags2
 .text.yaffs_qsort
                0x0004a73c      0x974 fs/built-in.o
                0x0004a73c                yaffs_qsort
 .text.yaffs_summary_gc
                0x0004b0b0       0xfc fs/built-in.o
                0x0004b0b0                yaffs_summary_gc
 .text.yaffs_summary_fetch
                0x0004b1ac       0x60 fs/built-in.o
                0x0004b1ac                yaffs_summary_fetch
 .text.yaffs_summary_add
                0x0004b20c      0x2d4 fs/built-in.o
                0x0004b20c                yaffs_summary_add
 .text.yaffs_summary_read
                0x0004b4e0      0x280 fs/built-in.o
                0x0004b4e0                yaffs_summary_read
 .text.yaffs_summary_deinit
                0x0004b760       0x2c fs/built-in.o
                0x0004b760                yaffs_summary_deinit
 .text.yaffs_summary_init
                0x0004b78c       0x90 fs/built-in.o
                0x0004b78c                yaffs_summary_init
 .text.yaffs_calc_tags_ecc
                0x0004b81c       0x7c fs/built-in.o
                0x0004b81c                yaffs_calc_tags_ecc
 .text.yaffs_check_tags_ecc
                0x0004b898       0x64 fs/built-in.o
                0x0004b898                yaffs_check_tags_ecc
 .text.yaffs_calc_ecc
                0x0004b8fc       0x24 fs/built-in.o
                0x0004b8fc                yaffs_calc_ecc
 .text.yaffs_wr_nand
                0x0004b920       0x4c fs/built-in.o
 .text.yaffs_tags_compat_mark_bad
                0x0004b96c       0x68 fs/built-in.o
                0x0004b96c                yaffs_tags_compat_mark_bad
 .text.yaffs_tags_compat_wr
                0x0004b9d4      0x150 fs/built-in.o
                0x0004b9d4                yaffs_tags_compat_wr
 .text.yaffs_handle_rd_data_error
                0x0004bb24       0xb8 fs/built-in.o
 .text.T.92     0x0004bbdc      0x2d0 fs/built-in.o
 .text.yaffs_tags_compat_rd
                0x0004beac      0x1bc fs/built-in.o
                0x0004beac                yaffs_tags_compat_rd
 .text.yaffs_tags_compat_query_block
                0x0004c068      0x100 fs/built-in.o
                0x0004c068                yaffs_tags_compat_query_block
 .text.yaffs_skip_verification
                0x0004c168       0x1c fs/built-in.o
                0x0004c168                yaffs_skip_verification
 .text.yaffs_verify_file_sane
                0x0004c184        0x8 fs/built-in.o
                0x0004c184                yaffs_verify_file_sane
 .text.yaffs_verify_free_chunks
                0x0004c18c       0x5c fs/built-in.o
                0x0004c18c                yaffs_verify_free_chunks
 .text.yaffs_verify_oh
                0x0004c1e8      0x1c0 fs/built-in.o
                0x0004c1e8                yaffs_verify_oh
 .text.yaffs_verify_file
                0x0004c3a8      0x12c fs/built-in.o
                0x0004c3a8                yaffs_verify_file
 .text.yaffs_verify_obj
                0x0004c4d4      0x268 fs/built-in.o
                0x0004c4d4                yaffs_verify_obj
 .text.yaffs_verify_obj_in_dir
                0x0004c73c      0x128 fs/built-in.o
                0x0004c73c                yaffs_verify_obj_in_dir
 .text.yaffs_verify_dir
                0x0004c864       0xd0 fs/built-in.o
                0x0004c864                yaffs_verify_dir
 .text.yaffs_verify_objects
                0x0004c934       0x64 fs/built-in.o
                0x0004c934                yaffs_verify_objects
 .text.yaffs_verify_blk
                0x0004c998      0x134 fs/built-in.o
                0x0004c998                yaffs_verify_blk
 .text.yaffs_verify_blocks
                0x0004cacc      0x1f0 fs/built-in.o
                0x0004cacc                yaffs_verify_blocks
 .text.yaffs_verify_collected_blk
                0x0004ccbc       0x50 fs/built-in.o
                0x0004ccbc                yaffs_verify_collected_blk
 .text.yaffs1_scan
                0x0004cd0c      0x7e8 fs/built-in.o
                0x0004cd0c                yaffs1_scan
 .text.yaffs_calc_oldest_dirty_seq
                0x0004d4f4       0x98 fs/built-in.o
                0x0004d4f4                yaffs_calc_oldest_dirty_seq
 .text.yaffs2_find_oldest_dirty_seq
                0x0004d58c       0x1c fs/built-in.o
                0x0004d58c                yaffs2_find_oldest_dirty_seq
 .text.yaffs2_clear_oldest_dirty_seq
                0x0004d5a8       0x34 fs/built-in.o
                0x0004d5a8                yaffs2_clear_oldest_dirty_seq
 .text.yaffs2_update_oldest_dirty_seq
                0x0004d5dc       0x2c fs/built-in.o
                0x0004d5dc                yaffs2_update_oldest_dirty_seq
 .text.yaffs_block_ok_for_gc
                0x0004d608       0x48 fs/built-in.o
                0x0004d608                yaffs_block_ok_for_gc
 .text.yaffs_calc_checkpt_blocks_required
                0x0004d650       0xd0 fs/built-in.o
                0x0004d650                yaffs_calc_checkpt_blocks_required
 .text.yaffs2_ybicmp
                0x0004d720       0x20 fs/built-in.o
 .text.yaffs2_find_refresh_block
                0x0004d740       0xd8 fs/built-in.o
                0x0004d740                yaffs2_find_refresh_block
 .text.yaffs2_scan_backwards
                0x0004d818      0xd28 fs/built-in.o
                0x0004d818                yaffs2_scan_backwards
 .text.yaffs2_handle_hole
                0x0004e540      0x1e8 fs/built-in.o
                0x0004e540                yaffs2_handle_hole
 .text.yaffs2_rd_checkpt_validity_marker
                0x0004e728       0x70 fs/built-in.o
 .text.yaffs2_checkpt_restore
                0x0004e798      0x654 fs/built-in.o
                0x0004e798                yaffs2_checkpt_restore
 .text.yaffs2_checkpt_tnode_worker
                0x0004edec       0xb8 fs/built-in.o
 .text.yaffs2_wr_checkpt_validity_marker
                0x0004eea4       0x6c fs/built-in.o
 .text.yaffs2_checkpt_invalidate
                0x0004ef10       0x4c fs/built-in.o
                0x0004ef10                yaffs2_checkpt_invalidate
 .text.yaffs_checkpoint_save
                0x0004ef5c      0x4fc fs/built-in.o
                0x0004ef5c                yaffs_checkpoint_save
 .text.nandmtd_InitialiseNAND
                0x0004f458        0x8 fs/built-in.o
                0x0004f458                nandmtd_InitialiseNAND
 .text.nandmtd_EraseBlockInNAND
                0x0004f460       0x70 fs/built-in.o
                0x0004f460                nandmtd_EraseBlockInNAND
 .text.nandmtd2_MarkNANDBlockBad
                0x0004f4d0       0x54 fs/built-in.o
                0x0004f4d0                nandmtd2_MarkNANDBlockBad
 .text.nandmtd2_read_chunk_tags
                0x0004f524      0x21c fs/built-in.o
                0x0004f524                nandmtd2_read_chunk_tags
 .text.nandmtd2_QueryNANDBlock
                0x0004f740       0xf4 fs/built-in.o
                0x0004f740                nandmtd2_QueryNANDBlock
 .text.nandmtd2_write_chunk_tags
                0x0004f834      0x164 fs/built-in.o
                0x0004f834                nandmtd2_write_chunk_tags
 .text.efi_return_handle
                0x0004f998        0xc lib/built-in.o
                0x0004f998                efi_return_handle
 .text.invalidate_icache_all
                0x0004f9a4        0x4 lib/built-in.o
                0x0004f9a4                invalidate_icache_all
 .text.efi_load_pe
                0x0004f9a8      0x2f0 lib/built-in.o
                0x0004f9a8                efi_load_pe
 .text.efi_save_gd
                0x0004fc98       0x10 lib/built-in.o
                0x0004fc98                efi_save_gd
 .text.efi_restore_gd
                0x0004fca8       0x2c lib/built-in.o
                0x0004fca8                efi_restore_gd
 .text.efi_exit_func
                0x0004fcd4       0x10 lib/built-in.o
                0x0004fcd4                efi_exit_func
 .text.efi_raise_tpl
                0x0004fce4       0x34 lib/built-in.o
 .text.efi_restore_tpl
                0x0004fd18       0x30 lib/built-in.o
 .text.efi_create_event
                0x0004fd48       0x6c lib/built-in.o
 .text.efi_signal_event
                0x0004fdb4       0x34 lib/built-in.o
 .text.efi_close_event
                0x0004fde8       0x4c lib/built-in.o
 .text.efi_check_event
                0x0004fe34       0x34 lib/built-in.o
 .text.efi_install_protocol_interface
                0x0004fe68       0x34 lib/built-in.o
 .text.efi_reinstall_protocol_interface
                0x0004fe9c       0x34 lib/built-in.o
 .text.efi_uninstall_protocol_interface
                0x0004fed0       0x34 lib/built-in.o
 .text.efi_register_protocol_notify
                0x0004ff04       0x34 lib/built-in.o
 .text.efi_locate_device_path
                0x0004ff38       0x34 lib/built-in.o
 .text.efi_start_image
                0x0004ff6c       0x90 lib/built-in.o
 .text.efi_exit
                0x0004fffc       0x40 lib/built-in.o
 .text.efi_unload_image
                0x0005003c       0x84 lib/built-in.o
 .text.efi_get_next_monotonic_count
                0x000500c0       0x5c lib/built-in.o
 .text.efi_set_watchdog_timer
                0x0005011c       0x34 lib/built-in.o
 .text.efi_connect_controller
                0x00050150       0x34 lib/built-in.o
 .text.efi_disconnect_controller
                0x00050184       0x34 lib/built-in.o
 .text.efi_close_protocol
                0x000501b8       0x34 lib/built-in.o
 .text.efi_open_protocol_information
                0x000501ec       0x34 lib/built-in.o
 .text.efi_protocols_per_handle
                0x00050220       0x34 lib/built-in.o
 .text.efi_locate_handle_buffer
                0x00050254       0x34 lib/built-in.o
 .text.efi_install_multiple_protocol_interfaces
                0x00050288       0x3c lib/built-in.o
 .text.efi_uninstall_multiple_protocol_interfaces
                0x000502c4       0x3c lib/built-in.o
 .text.efi_set_mem
                0x00050300       0x40 lib/built-in.o
 .text.efi_copy_mem
                0x00050340       0x34 lib/built-in.o
 .text.efi_calculate_crc32
                0x00050374       0x58 lib/built-in.o
 .text.guidcmp  0x000503cc        0x8 lib/built-in.o
 .text.efi_locate_protocol
                0x000503d4       0x60 lib/built-in.o
 .text.efi_open_protocol
                0x00050434       0xe4 lib/built-in.o
 .text.efi_handle_protocol
                0x00050518       0x1c lib/built-in.o
 .text.efi_install_configuration_table
                0x00050534       0xc8 lib/built-in.o
 .text.efi_locate_handle
                0x000505fc      0x158 lib/built-in.o
 .text.efi_stall
                0x00050754       0x40 lib/built-in.o
 .text.efi_exit_boot_services
                0x00050794       0x54 lib/built-in.o
 .text.efi_load_image
                0x000507e8       0xe0 lib/built-in.o
 .text.efi_timer_check
                0x000508c8       0x78 lib/built-in.o
                0x000508c8                efi_timer_check
 .text.efi_wait_for_event
                0x00050940       0x6c lib/built-in.o
 .text.efi_set_timer
                0x000509ac       0xe0 lib/built-in.o
 .text.efi_free_pool
                0x00050a8c       0x44 lib/built-in.o
 .text.efi_free_pages_ext
                0x00050ad0       0x4c lib/built-in.o
                0x00050ad0                efi_free_pages_ext
 .text.efi_allocate_pool
                0x00050b1c       0x54 lib/built-in.o
 .text.efi_allocate_pages_ext
                0x00050b70       0x3c lib/built-in.o
                0x00050b70                efi_allocate_pages_ext
 .text.efi_get_memory_map_ext
                0x00050bac       0x44 lib/built-in.o
                0x00050bac                efi_get_memory_map_ext
 .text.efi_get_time
                0x00050bf0        0x8 lib/built-in.o
 .text.efi_reset_system
                0x00050bf8       0x30 lib/built-in.o
 .text.efi_runtime_relocate
                0x00050c28      0x148 lib/built-in.o
                0x00050c28                efi_runtime_relocate
 .text.efi_set_virtual_address_map
                0x00050d70       0xb4 lib/built-in.o
 .text.efi_cin_reset
                0x00050e24       0x14 lib/built-in.o
 .text.efi_cout_set_attribute
                0x00050e38       0x14 lib/built-in.o
 .text.efi_cout_set_mode
                0x00050e4c       0x20 lib/built-in.o
 .text.efi_cout_test_string
                0x00050e6c       0x14 lib/built-in.o
 .text.efi_cout_reset
                0x00050e80       0x14 lib/built-in.o
 .text.efi_cin_lock_std_in
                0x00050e94       0x14 lib/built-in.o
 .text.efi_cin_set_mode
                0x00050ea8       0x14 lib/built-in.o
 .text.efi_cin_get_mode
                0x00050ebc       0x44 lib/built-in.o
 .text.efi_cin_read_key_stroke
                0x00050f00      0x130 lib/built-in.o
 .text.efi_cout_enable_cursor
                0x00051030       0x30 lib/built-in.o
 .text.efi_cout_set_cursor_position
                0x00051060       0x40 lib/built-in.o
 .text.efi_cout_clear_screen
                0x000510a0       0x20 lib/built-in.o
 .text.efi_cout_query_mode
                0x000510c0      0x14c lib/built-in.o
 .text.efi_cout_output_string
                0x0005120c      0x104 lib/built-in.o
 .text.efi_mem_cmp
                0x00051310       0x48 lib/built-in.o
 .text.efi_free_pages
                0x00051358        0x8 lib/built-in.o
                0x00051358                efi_free_pages
 .text.efi_get_memory_map
                0x00051360       0xb8 lib/built-in.o
                0x00051360                efi_get_memory_map
 .text.efi_add_memory_map
                0x00051418      0x3cc lib/built-in.o
                0x00051418                efi_add_memory_map
 .text.efi_memory_init
                0x000517e4       0xe0 lib/built-in.o
                0x000517e4                efi_memory_init
 .text.efi_allocate_pages
                0x000518c4      0x2a8 lib/built-in.o
                0x000518c4                efi_allocate_pages
 .text.efi_alloc
                0x00051b6c       0x50 lib/built-in.o
                0x00051b6c                efi_alloc
 .text.efi_gop_register
                0x00051bbc       0xd8 lib/built-in.o
                0x00051bbc                efi_gop_register
 .text.gop_set_mode
                0x00051c94       0x20 lib/built-in.o
 .text.gop_query_mode
                0x00051cb4       0x30 lib/built-in.o
 .text.gop_blt  0x00051ce4      0x12c lib/built-in.o
 .text.efi_disk_open_block
                0x00051e10       0x10 lib/built-in.o
 .text.efi_disk_open_dp
                0x00051e20       0x10 lib/built-in.o
 .text.efi_disk_register
                0x00051e30      0x224 lib/built-in.o
                0x00051e30                efi_disk_register
 .text.efi_disk_flush_blocks
                0x00052054       0x14 lib/built-in.o
 .text.efi_disk_reset
                0x00052068       0x14 lib/built-in.o
 .text.efi_disk_rw_blocks
                0x0005207c       0x94 lib/built-in.o
 .text.efi_disk_write_blocks
                0x00052110       0x50 lib/built-in.o
 .text.efi_disk_read_blocks
                0x00052160       0x50 lib/built-in.o
 .text.efi_net_push
                0x000521b0       0x14 lib/built-in.o
 .text.efi_net_open_dp
                0x000521c4       0x10 lib/built-in.o
 .text.efi_net_open_pxe
                0x000521d4       0x10 lib/built-in.o
 .text.efi_net_register
                0x000521e4      0x238 lib/built-in.o
                0x000521e4                efi_net_register
 .text.efi_net_receive
                0x0005241c       0x94 lib/built-in.o
 .text.efi_net_get_status
                0x000524b0       0x48 lib/built-in.o
 .text.efi_net_nvdata
                0x000524f8       0x14 lib/built-in.o
 .text.efi_net_mcastiptomac
                0x0005250c       0x14 lib/built-in.o
 .text.efi_net_statistics
                0x00052520       0x14 lib/built-in.o
 .text.efi_net_station_address
                0x00052534       0x14 lib/built-in.o
 .text.efi_net_receive_filters
                0x00052548       0x14 lib/built-in.o
 .text.efi_net_shutdown
                0x0005255c       0x14 lib/built-in.o
 .text.efi_net_reset
                0x00052570       0x14 lib/built-in.o
 .text.efi_net_stop
                0x00052584       0x14 lib/built-in.o
 .text.efi_net_start
                0x00052598       0x14 lib/built-in.o
 .text.efi_net_transmit
                0x000525ac       0x44 lib/built-in.o
 .text.efi_net_initialize
                0x000525f0       0x18 lib/built-in.o
 .text.efi_net_set_dhcp_ack
                0x00052608       0x4c lib/built-in.o
                0x00052608                efi_net_set_dhcp_ack
 .text.LzmaDec_WriteRem
                0x00052654       0xb4 lib/built-in.o
 .text.LzmaDec_DecodeReal2
                0x00052708      0xd5c lib/built-in.o
 .text.LzmaDec_TryDummy
                0x00053464      0x5a0 lib/built-in.o
 .text.LzmaDec_FreeProbs
                0x00053a04       0x28 lib/built-in.o
                0x00053a04                LzmaDec_FreeProbs
 .text.LzmaProps_Decode
                0x00053a2c       0xa4 lib/built-in.o
                0x00053a2c                LzmaProps_Decode
 .text.LzmaDec_AllocateProbs2
                0x00053ad0       0x74 lib/built-in.o
 .text.LzmaDec_AllocateProbs
                0x00053b44       0x50 lib/built-in.o
                0x00053b44                LzmaDec_AllocateProbs
 .text.LzmaDec_DecodeToDic
                0x00053b94      0x3e4 lib/built-in.o
                0x00053b94                LzmaDec_DecodeToDic
 .text.LzmaDecode
                0x00053f78       0xf0 lib/built-in.o
                0x00053f78                LzmaDecode
 .text.lzmaBuffToBuffDecompress
                0x00054068      0x10c lib/built-in.o
                0x00054068                lzmaBuffToBuffDecompress
 .text.SzFree   0x00054174        0x8 lib/built-in.o
 .text.SzAlloc  0x0005417c        0x8 lib/built-in.o
 .text.lzo1x_decompress_safe
                0x00054184      0x6ec lib/built-in.o
                0x00054184                lzo1x_decompress_safe
 .text.lzop_decompress
                0x00054870      0x180 lib/built-in.o
                0x00054870                lzop_decompress
 .text.inflate_fast
                0x000549f0      0x56c lib/built-in.o
                0x000549f0                inflate_fast
 .text.inflate_table
                0x00054f5c      0x5a4 lib/built-in.o
                0x00054f5c                inflate_table
 .text.inflateReset
                0x00055500       0x78 lib/built-in.o
                0x00055500                inflateReset
 .text.inflateInit2_
                0x00055578      0x100 lib/built-in.o
                0x00055578                inflateInit2_
 .text.inflateEnd
                0x00055678       0x64 lib/built-in.o
                0x00055678                inflateEnd
 .text.adler32  0x000556dc      0x310 lib/built-in.o
                0x000556dc                adler32
 .text.zcfree   0x000559ec        0x8 lib/built-in.o
                0x000559ec                zcfree
 .text.zcalloc  0x000559f4        0x8 lib/built-in.o
                0x000559f4                zcalloc
 .text.inflate  0x000559fc     0x172c lib/built-in.o
                0x000559fc                inflate
 .text.BZ2_bzDecompressInit
                0x00057128       0xc8 lib/built-in.o
                0x00057128                BZ2_bzDecompressInit
 .text.BZ2_indexIntoF
                0x000571f0       0x38 lib/built-in.o
                0x000571f0                BZ2_indexIntoF
 .text.BZ2_bzDecompressEnd
                0x00057228       0x84 lib/built-in.o
                0x00057228                BZ2_bzDecompressEnd
 .text.bz_internal_error
                0x000572ac       0x10 lib/built-in.o
                0x000572ac                bz_internal_error
 .text.BZ2_bzDecompress
                0x000572bc      0xe04 lib/built-in.o
                0x000572bc                BZ2_bzDecompress
 .text.BZ2_bzBuffToBuffDecompress
                0x000580c0       0xe0 lib/built-in.o
                0x000580c0                BZ2_bzBuffToBuffDecompress
 .text.default_bzfree
                0x000581a0        0xc lib/built-in.o
 .text.default_bzalloc
                0x000581ac        0x8 lib/built-in.o
 .text.BZ2_decompress
                0x000581b4     0x28d4 lib/built-in.o
                0x000581b4                BZ2_decompress
 .text.BZ2_hbCreateDecodeTables
                0x0005aa88      0x150 lib/built-in.o
                0x0005aa88                BZ2_hbCreateDecodeTables
 .text.crc16_ccitt
                0x0005abd8       0x40 lib/built-in.o
                0x0005abd8                crc16_ccitt
 .text.zunzip   0x0005ac18      0x118 lib/built-in.o
                0x0005ac18                zunzip
 .text.gunzip   0x0005ad30       0xb4 lib/built-in.o
                0x0005ad30                gunzip
 .text.gzfree   0x0005ade4        0x8 lib/built-in.o
                0x0005ade4                gzfree
 .text.gzalloc  0x0005adec       0x10 lib/built-in.o
                0x0005adec                gzalloc
 .text.initcall_run_list
                0x0005adfc       0x68 lib/built-in.o
                0x0005adfc                initcall_run_list
 .text.lmb_init
                0x0005ae64       0x28 lib/built-in.o
                0x0005ae64                lmb_init
 .text.lmb_add_region
                0x0005ae8c      0x1cc lib/built-in.o
 .text.lmb_add  0x0005b058        0x4 lib/built-in.o
                0x0005b058                lmb_add
 .text.lmb_free
                0x0005b05c      0x120 lib/built-in.o
                0x0005b05c                lmb_free
 .text.lmb_reserve
                0x0005b17c        0x8 lib/built-in.o
                0x0005b17c                lmb_reserve
 .text.__lmb_alloc_base
                0x0005b184      0x158 lib/built-in.o
                0x0005b184                __lmb_alloc_base
 .text.board_lmb_reserve
                0x0005b2dc        0x4 lib/built-in.o
                0x0005b2dc                board_lmb_reserve
 .text.lmb_alloc_base
                0x0005b2e0       0x30 lib/built-in.o
                0x0005b2e0                lmb_alloc_base
 .text.lmb_alloc
                0x0005b310        0x8 lib/built-in.o
                0x0005b310                lmb_alloc
 .text.string_to_ip
                0x0005b318       0x7c lib/built-in.o
                0x0005b318                string_to_ip
 .text.qsort    0x0005b394      0x13c lib/built-in.o
                0x0005b394                qsort
 .text.rb_first
                0x0005b4d0       0x20 lib/built-in.o
                0x0005b4d0                rb_first
 .text.rb_last  0x0005b4f0       0x20 lib/built-in.o
                0x0005b4f0                rb_last
 .text.rb_next  0x0005b510       0x58 lib/built-in.o
                0x0005b510                rb_next
 .text.rb_next_postorder
                0x0005b568       0x50 lib/built-in.o
                0x0005b568                rb_next_postorder
 .text.rb_first_postorder
                0x0005b5b8       0x2c lib/built-in.o
                0x0005b5b8                rb_first_postorder
 .text.rb_erase
                0x0005b5e4      0x340 lib/built-in.o
                0x0005b5e4                rb_erase
 .text.rb_insert_color
                0x0005b924      0x144 lib/built-in.o
                0x0005b924                rb_insert_color
 .text.list_sort
                0x0005ba68      0x258 lib/built-in.o
                0x0005ba68                list_sort
 .text.fdt_offset_ptr
                0x0005bcc0       0x88 lib/built-in.o
                0x0005bcc0                fdt_offset_ptr
 .text.fdt_next_tag
                0x0005bd48      0x120 lib/built-in.o
                0x0005bd48                fdt_next_tag
 .text._fdt_check_prop_offset
                0x0005be68       0x34 lib/built-in.o
                0x0005be68                _fdt_check_prop_offset
 .text._fdt_check_node_offset
                0x0005be9c       0x34 lib/built-in.o
                0x0005be9c                _fdt_check_node_offset
 .text.fdt_next_node
                0x0005bed0       0xcc lib/built-in.o
                0x0005bed0                fdt_next_node
 .text.fdt_check_header
                0x0005bf9c       0xc4 lib/built-in.o
                0x0005bf9c                fdt_check_header
 .text.fdt_move
                0x0005c060       0x54 lib/built-in.o
                0x0005c060                fdt_move
 .text._fdt_find_string
                0x0005c0b4       0x58 lib/built-in.o
                0x0005c0b4                _fdt_find_string
 .text.fdt_supernode_atdepth_offset
                0x0005c10c       0xb4 lib/built-in.o
                0x0005c10c                fdt_supernode_atdepth_offset
 .text.fdt_node_depth
                0x0005c1c0       0x24 lib/built-in.o
                0x0005c1c0                fdt_node_depth
 .text.fdt_parent_offset
                0x0005c1e4       0x30 lib/built-in.o
                0x0005c1e4                fdt_parent_offset
 .text.fdt_path_next_separator
                0x0005c214       0x58 lib/built-in.o
 .text.fdt_num_mem_rsv
                0x0005c26c       0x88 lib/built-in.o
                0x0005c26c                fdt_num_mem_rsv
 .text.fdt_get_mem_rsv
                0x0005c2f4       0xd8 lib/built-in.o
                0x0005c2f4                fdt_get_mem_rsv
 .text.fdt_string
                0x0005c3cc       0x28 lib/built-in.o
                0x0005c3cc                fdt_string
 .text.fdt_get_property_by_offset
                0x0005c3f4       0x80 lib/built-in.o
                0x0005c3f4                fdt_get_property_by_offset
 .text.fdt_getprop_by_offset
                0x0005c474       0x58 lib/built-in.o
                0x0005c474                fdt_getprop_by_offset
 .text._nextprop
                0x0005c4cc       0x54 lib/built-in.o
 .text.fdt_next_property_offset
                0x0005c520       0x20 lib/built-in.o
                0x0005c520                fdt_next_property_offset
 .text.fdt_first_property_offset
                0x0005c540       0x20 lib/built-in.o
                0x0005c540                fdt_first_property_offset
 .text.fdt_get_property_namelen
                0x0005c560       0xc8 lib/built-in.o
                0x0005c560                fdt_get_property_namelen
 .text.fdt_getprop_namelen
                0x0005c628       0x1c lib/built-in.o
                0x0005c628                fdt_getprop_namelen
 .text.fdt_getprop
                0x0005c644       0x38 lib/built-in.o
                0x0005c644                fdt_getprop
 .text.fdt_get_property
                0x0005c67c       0x38 lib/built-in.o
                0x0005c67c                fdt_get_property
 .text.fdt_get_name
                0x0005c6b4       0x84 lib/built-in.o
                0x0005c6b4                fdt_get_name
 .text.fdt_subnode_offset_namelen
                0x0005c738       0xcc lib/built-in.o
                0x0005c738                fdt_subnode_offset_namelen
 .text.fdt_path_offset_namelen
                0x0005c804       0xf0 lib/built-in.o
                0x0005c804                fdt_path_offset_namelen
 .text.fdt_get_alias_namelen
                0x0005c8f4       0x54 lib/built-in.o
                0x0005c8f4                fdt_get_alias_namelen
 .text.fdt_subnode_offset
                0x0005c948       0x30 lib/built-in.o
                0x0005c948                fdt_subnode_offset
 .text._fdt_blocks_misordered
                0x0005c978       0xcc lib/built-in.o
 .text._fdt_splice
                0x0005ca44       0xb0 lib/built-in.o
 .text._fdt_find_add_string
                0x0005caf4      0x11c lib/built-in.o
 .text._fdt_splice_struct
                0x0005cc10       0x9c lib/built-in.o
 .text._fdt_splice_mem_rsv
                0x0005ccac       0xa8 lib/built-in.o
 .text._fdt_packblocks
                0x0005cd54      0x148 lib/built-in.o
 .text._fdt_rw_check_header
                0x0005ce9c       0xa0 lib/built-in.o
 .text.fdt_del_mem_rsv
                0x0005cf3c       0x6c lib/built-in.o
                0x0005cf3c                fdt_del_mem_rsv
 .text.fdt_add_mem_rsv
                0x0005cfa8      0x118 lib/built-in.o
                0x0005cfa8                fdt_add_mem_rsv
 .text.fdt_open_into
                0x0005d0c0      0x23c lib/built-in.o
                0x0005d0c0                fdt_open_into
 .text.fdt_del_node
                0x0005d2fc       0x70 lib/built-in.o
                0x0005d2fc                fdt_del_node
 .text.fdt_add_subnode_namelen
                0x0005d36c      0x114 lib/built-in.o
                0x0005d36c                fdt_add_subnode_namelen
 .text.fdt_add_subnode
                0x0005d480       0x30 lib/built-in.o
                0x0005d480                fdt_add_subnode
 .text.fdt_delprop
                0x0005d4b0       0x64 lib/built-in.o
                0x0005d4b0                fdt_delprop
 .text._fdt_add_property
                0x0005d514       0xc4 lib/built-in.o
 .text.fdt_setprop
                0x0005d5d8       0xe8 lib/built-in.o
                0x0005d5d8                fdt_setprop
 .text.fdt_strerror
                0x0005d6c0       0x4c lib/built-in.o
                0x0005d6c0                fdt_strerror
 .text._fdt_node_end_offset
                0x0005d70c       0x40 lib/built-in.o
                0x0005d70c                _fdt_node_end_offset
 .text.fdt_size_cells
                0x0005d74c       0x58 lib/built-in.o
                0x0005d74c                fdt_size_cells
 .text.fdt_address_cells
                0x0005d7a4       0x5c lib/built-in.o
                0x0005d7a4                fdt_address_cells
 .text.hwalk_r  0x0005d800       0x5c lib/built-in.o
                0x0005d800                hwalk_r
 .text._hdelete
                0x0005d85c       0x50 lib/built-in.o
 .text.hdestroy_r
                0x0005d8ac       0x74 lib/built-in.o
                0x0005d8ac                hdestroy_r
 .text.drop_var_from_set
                0x0005d920       0x60 lib/built-in.o
 .text.cmpkey   0x0005d980       0x14 lib/built-in.o
 .text.hcreate_r
                0x0005d994       0xa8 lib/built-in.o
                0x0005d994                hcreate_r
 .text.match_string
                0x0005da3c       0xbc lib/built-in.o
 .text.match_entry
                0x0005daf8       0xdc lib/built-in.o
 .text.hexport_r
                0x0005dbd4      0x2c8 lib/built-in.o
                0x0005dbd4                hexport_r
 .text.hsearch_r
                0x0005de9c      0x52c lib/built-in.o
                0x0005de9c                hsearch_r
 .text.hdelete_r
                0x0005e3c8       0xf8 lib/built-in.o
                0x0005e3c8                hdelete_r
 .text.himport_r
                0x0005e4c0      0x3dc lib/built-in.o
                0x0005e4c0                himport_r
 .text.print_size
                0x0005e89c      0x13c lib/built-in.o
                0x0005e89c                print_size
 .text.display_options
                0x0005e9d8       0x20 lib/built-in.o
                0x0005e9d8                display_options
 .text.print_buffer
                0x0005e9f8      0x1ac lib/built-in.o
                0x0005e9f8                print_buffer
 .text.crc32_no_comp
                0x0005eba4       0xec lib/built-in.o
                0x0005eba4                crc32_no_comp
 .text.crc32    0x0005ec90       0x14 lib/built-in.o
                0x0005ec90                crc32
 .text.crc32_wd
                0x0005eca4        0x4 lib/built-in.o
                0x0005eca4                crc32_wd
 .text.__div64_32
                0x0005eca8       0xf8 lib/built-in.o
                0x0005eca8                __div64_32
 .text.hang     0x0005eda0       0x18 lib/built-in.o
                0x0005eda0                hang
 .text.kmem_cache_alloc
                0x0005edb8        0xc lib/built-in.o
                0x0005edb8                kmem_cache_alloc
 .text.get_mem  0x0005edc4       0x1c lib/built-in.o
                0x0005edc4                get_mem
 .text.kmalloc  0x0005ede0       0x34 lib/built-in.o
                0x0005ede0                kmalloc
 .text.copy_from_user
                0x0005ee14       0x10 lib/built-in.o
                0x0005ee14                copy_from_user
 .text.strim    0x0005ee24       0x74 lib/built-in.o
                0x0005ee24                strim
 .text.match    0x0005ee98      0x420 lib/built-in.o
 .text.slre_match
                0x0005f2b8       0x98 lib/built-in.o
                0x0005f2b8                slre_match
 .text.loop_greedy
                0x0005f350       0x98 lib/built-in.o
 .text.loop_non_greedy
                0x0005f3e8       0x8c lib/built-in.o
 .text.relocate
                0x0005f474       0x58 lib/built-in.o
 .text.quantifier
                0x0005f4cc       0xe0 lib/built-in.o
 .text.compile  0x0005f5ac      0x658 lib/built-in.o
 .text.slre_compile
                0x0005fc04      0x158 lib/built-in.o
                0x0005fc04                slre_compile
 .text.strcpy   0x0005fd5c       0x1c lib/built-in.o
                0x0005fd5c                strcpy
 .text.strncpy  0x0005fd78       0x28 lib/built-in.o
                0x0005fd78                strncpy
 .text.strcat   0x0005fda0       0x30 lib/built-in.o
                0x0005fda0                strcat
 .text.strncat  0x0005fdd0       0x5c lib/built-in.o
                0x0005fdd0                strncat
 .text.strcmp   0x0005fe2c       0x30 lib/built-in.o
                0x0005fe2c                strcmp
 .text.strncmp  0x0005fe5c       0x48 lib/built-in.o
                0x0005fe5c                strncmp
 .text.strchr   0x0005fea4       0x2c lib/built-in.o
                0x0005fea4                strchr
 .text.strlen   0x0005fed0       0x20 lib/built-in.o
                0x0005fed0                strlen
 .text.strnlen  0x0005fef0       0x28 lib/built-in.o
                0x0005fef0                strnlen
 .text.strsep   0x0005ff18       0x64 lib/built-in.o
                0x0005ff18                strsep
 .text.memset   0x0005ff7c       0x74 lib/built-in.o
                0x0005ff7c                memset
 .text.memcpy   0x0005fff0       0x74 lib/built-in.o
                0x0005fff0                memcpy
 .text.strlcpy  0x00060064       0x54 lib/built-in.o
                0x00060064                strlcpy
 .text.memmove  0x000600b8       0x64 lib/built-in.o
                0x000600b8                memmove
 .text.memcmp   0x0006011c       0x38 lib/built-in.o
                0x0006011c                memcmp
 .text.memscan  0x00060154       0x30 lib/built-in.o
                0x00060154                memscan
 .text.strstr   0x00060184       0x80 lib/built-in.o
                0x00060184                strstr
 .text.memchr   0x00060204       0x2c lib/built-in.o
                0x00060204                memchr
 .text.strdup   0x00060230       0x58 lib/built-in.o
                0x00060230                strdup
 .text.tick_to_time
                0x00060288       0x54 lib/built-in.o
 .text.udelay   0x000602dc       0x30 lib/built-in.o
                0x000602dc                udelay
 .text.mdelay   0x0006030c       0x24 lib/built-in.o
                0x0006030c                mdelay
 .text.timer_get_us
                0x00060330       0x24 lib/built-in.o
                0x00060330                timer_get_us
 .text.rand_r   0x00060354       0x1c lib/built-in.o
                0x00060354                rand_r
 .text.put_dec_trunc
                0x00060370       0xdc lib/built-in.o
 .text.simple_itoa
                0x0006044c       0x54 lib/built-in.o
                0x0006044c                simple_itoa
 .text.str2long
                0x000604a0       0x3c lib/built-in.o
                0x000604a0                str2long
 .text.str2off  0x000604dc       0x3c lib/built-in.o
                0x000604dc                str2off
 .text.string   0x00060518       0xac lib/built-in.o
 .text.put_dec  0x000605c4      0x134 lib/built-in.o
 .text.number   0x000606f8      0x274 lib/built-in.o
 .text.vsnprintf_internal
                0x0006096c      0x6e4 lib/built-in.o
 .text.vsprintf
                0x00061050       0x10 lib/built-in.o
                0x00061050                vsprintf
 .text.sprintf  0x00061060       0x28 lib/built-in.o
                0x00061060                sprintf
 .text.snprintf
                0x00061088       0x28 lib/built-in.o
                0x00061088                snprintf
 .text.vscnprintf
                0x000610b0       0x24 lib/built-in.o
                0x000610b0                vscnprintf
 .text.vprintf  0x000610d4       0x3c lib/built-in.o
                0x000610d4                vprintf
 .text.printf   0x00061110       0x50 lib/built-in.o
                0x00061110                printf
 .text.panic_finish
                0x00061160       0x2c lib/built-in.o
 .text.panic    0x0006118c       0x20 lib/built-in.o
                0x0006118c                panic
 .text.simple_strtoul
                0x000611ac       0xb0 lib/built-in.o
                0x000611ac                simple_strtoul
 .text.simple_strtol
                0x0006125c       0x28 lib/built-in.o
                0x0006125c                simple_strtol
 .text.ustrtoul
                0x00061284       0x6c lib/built-in.o
                0x00061284                ustrtoul
 .text.simple_strtoull
                0x000612f0       0xdc lib/built-in.o
                0x000612f0                simple_strtoull
 .text.ustrtoull
                0x000613cc       0x84 lib/built-in.o
                0x000613cc                ustrtoull
 .text.trailing_strtoln
                0x00061450       0x5c lib/built-in.o
                0x00061450                trailing_strtoln
 .text.trailing_strtol
                0x000614ac        0x8 lib/built-in.o
                0x000614ac                trailing_strtol
 .text.strict_strtoul
                0x000614b4       0x78 lib/built-in.o
                0x000614b4                strict_strtoul
 .text.strmhz   0x0006152c       0x6c lib/built-in.o
                0x0006152c                strmhz
 .text.compute_ip_checksum
                0x00061598       0x74 net/built-in.o
                0x00061598                compute_ip_checksum
 .text.ip_checksum_ok
                0x0006160c       0x20 net/built-in.o
                0x0006160c                ip_checksum_ok
 .text.arp_init
                0x0006162c       0x50 net/built-in.o
                0x0006162c                arp_init
 .text.arp_receive
                0x0006167c      0x22c net/built-in.o
                0x0006167c                arp_receive
 .text.arp_raw_request
                0x000618a8       0xd0 net/built-in.o
                0x000618a8                arp_raw_request
 .text.arp_request
                0x00061978       0x8c net/built-in.o
                0x00061978                arp_request
 .text.arp_timeout_check
                0x00061a04       0x98 net/built-in.o
                0x00061a04                arp_timeout_check
 .text.bootp_reset
                0x00061a9c       0x48 net/built-in.o
                0x00061a9c                bootp_reset
 .text.dhcp_process_options
                0x00061ae4      0x1fc net/built-in.o
 .text.dhcp_packet_process_options
                0x00061ce0       0x7c net/built-in.o
 .text.dhcp_extended
                0x00061d5c      0x2f8 net/built-in.o
 .text.bootp_request
                0x00062054      0x2a4 net/built-in.o
                0x00062054                bootp_request
 .text.dhcp_request
                0x000622f8        0x4 net/built-in.o
                0x000622f8                dhcp_request
 .text.dhcp_handler
                0x000622fc      0x3e8 net/built-in.o
 .text.bootp_timeout_handler
                0x000626e4       0x78 net/built-in.o
 .text.__def_eth_init
                0x0006275c        0x8 net/built-in.o
                0x0006275c                cpu_eth_init
 .text.eth_set_current_to_next
                0x00062764       0x18 net/built-in.o
                0x00062764                eth_set_current_to_next
 .text.eth_set_dev
                0x0006277c       0x10 net/built-in.o
                0x0006277c                eth_set_dev
 .text.eth_get_dev_index
                0x0006278c       0x1c net/built-in.o
                0x0006278c                eth_get_dev_index
 .text.eth_halt
                0x000627a8       0x34 net/built-in.o
                0x000627a8                eth_halt
 .text.eth_send
                0x000627dc       0x34 net/built-in.o
                0x000627dc                eth_send
 .text.eth_rx   0x00062810       0x2c net/built-in.o
                0x00062810                eth_rx
 .text.on_ethaddr
                0x0006283c       0x94 net/built-in.o
 .text.eth_init
                0x000628d0       0x78 net/built-in.o
                0x000628d0                eth_init
 .text.eth_register
                0x00062948       0x80 net/built-in.o
                0x00062948                eth_register
 .text.eth_write_hwaddr
                0x000629c8      0x260 net/built-in.o
                0x000629c8                eth_write_hwaddr
 .text.eth_initialize
                0x00062c28      0x180 net/built-in.o
                0x00062c28                eth_initialize
 .text.eth_get_dev_by_name
                0x00062da8       0x80 net/built-in.o
                0x00062da8                eth_get_dev_by_name
 .text.eth_get_name
                0x00062e28       0x20 net/built-in.o
                0x00062e28                eth_get_name
 .text.eth_current_changed
                0x00062e48       0x9c net/built-in.o
                0x00062e48                eth_current_changed
 .text.eth_set_current
                0x00062ee4       0x98 net/built-in.o
                0x00062ee4                eth_set_current
 .text.eth_try_another
                0x00062f7c       0x84 net/built-in.o
                0x00062f7c                eth_try_another
 .text.eth_mac_skip
                0x00063000       0x44 net/built-in.o
                0x00063000                eth_mac_skip
 .text.eth_setenv_enetaddr
                0x00063044       0x38 net/built-in.o
                0x00063044                eth_setenv_enetaddr
 .text.eth_setenv_enetaddr_by_index
                0x0006307c       0x50 net/built-in.o
                0x0006307c                eth_setenv_enetaddr_by_index
 .text.eth_common_init
                0x000630cc        0x8 net/built-in.o
                0x000630cc                eth_common_init
 .text.eth_parse_enetaddr
                0x000630d4       0x60 net/built-in.o
                0x000630d4                eth_parse_enetaddr
 .text.eth_getenv_enetaddr
                0x00063134       0x58 net/built-in.o
                0x00063134                eth_getenv_enetaddr
 .text.eth_getenv_enetaddr_by_index
                0x0006318c       0x50 net/built-in.o
                0x0006318c                eth_getenv_enetaddr_by_index
 .text.on_bootfile
                0x000631dc       0x84 net/built-in.o
 .text.start_again_timeout_handler
                0x00063260       0x14 net/built-in.o
 .text.dummy_handler
                0x00063274        0x4 net/built-in.o
 .text.net_set_udp_handler
                0x00063278       0x20 net/built-in.o
                0x00063278                net_set_udp_handler
 .text.net_get_arp_handler
                0x00063298       0x10 net/built-in.o
                0x00063298                net_get_arp_handler
 .text.copy_filename
                0x000632a8       0x58 net/built-in.o
                0x000632a8                copy_filename
 .text.on_serverip
                0x00063300       0x28 net/built-in.o
 .text.on_netmask
                0x00063328       0x28 net/built-in.o
 .text.on_gatewayip
                0x00063350       0x28 net/built-in.o
 .text.on_ipaddr
                0x00063378       0x28 net/built-in.o
 .text.string_to_vlan
                0x000633a0       0x54 net/built-in.o
                0x000633a0                string_to_vlan
 .text.on_vlan  0x000633f4       0x28 net/built-in.o
 .text.on_nvlan
                0x0006341c       0x28 net/built-in.o
 .text.net_eth_hdr_size
                0x00063444       0x44 net/built-in.o
                0x00063444                net_eth_hdr_size
 .text.ip_to_string
                0x00063488       0x50 net/built-in.o
                0x00063488                ip_to_string
 .text.net_set_timeout_handler
                0x000634d8       0x50 net/built-in.o
                0x000634d8                net_set_timeout_handler
 .text.net_set_ip_header
                0x00063528       0x88 net/built-in.o
                0x00063528                net_set_ip_header
 .text.net_set_udp_header
                0x000635b0       0xa4 net/built-in.o
                0x000635b0                net_set_udp_header
 .text.net_update_ether
                0x00063654       0x90 net/built-in.o
                0x00063654                net_update_ether
 .text.net_set_ether
                0x000636e4       0xa4 net/built-in.o
                0x000636e4                net_set_ether
 .text.net_process_received_packet
                0x00063788      0x30c net/built-in.o
                0x00063788                net_process_received_packet
 .text.net_send_udp_packet
                0x00063a94      0x104 net/built-in.o
                0x00063a94                net_send_udp_packet
 .text.net_start_again
                0x00063b98      0x14c net/built-in.o
                0x00063b98                net_start_again
 .text.net_init
                0x00063ce4       0xb8 net/built-in.o
                0x00063ce4                net_init
 .text.net_loop
                0x00063d9c      0x414 net/built-in.o
                0x00063d9c                net_loop
 .text.net_auto_load
                0x000641b0       0x64 net/built-in.o
                0x000641b0                net_auto_load
 .text.rpc_add_credentials
                0x00064214       0x58 net/built-in.o
 .text.basename
                0x0006426c       0x3c net/built-in.o
 .text.nfs3_get_attributes_offset
                0x000642a8       0x28 net/built-in.o
 .text.rpc_lookup_reply
                0x000642d0      0x114 net/built-in.o
 .text.nfs_mount_reply
                0x000643e4       0xdc net/built-in.o
 .text.nfs_umountall_reply
                0x000644c0       0xc8 net/built-in.o
 .text.rpc_req  0x00064588      0x18c net/built-in.o
 .text.rpc_lookup_req
                0x00064714       0x80 net/built-in.o
 .text.nfs_mount_req
                0x00064794       0xa4 net/built-in.o
 .text.nfs_umountall_req
                0x00064838       0x60 net/built-in.o
 .text.nfs_lookup_req
                0x00064898      0x164 net/built-in.o
 .text.nfs_read_req
                0x000649fc      0x168 net/built-in.o
 .text.nfs_readlink_req
                0x00064b64       0xb8 net/built-in.o
 .text.nfs_send
                0x00064c1c       0xd0 net/built-in.o
 .text.nfs_start
                0x00064cec      0x180 net/built-in.o
                0x00064cec                nfs_start
 .text.nfs_lookup_reply
                0x00064e6c      0x1bc net/built-in.o
 .text.nfs_readlink_reply
                0x00065028      0x188 net/built-in.o
 .text.nfs_read_reply
                0x000651b0      0x200 net/built-in.o
 .text.nfs_handler
                0x000653b0      0x268 net/built-in.o
 .text.nfs_timeout_handler
                0x00065618       0x64 net/built-in.o
 .text.ping_receive
                0x0006567c       0xe0 net/built-in.o
                0x0006567c                ping_receive
 .text.ping_start
                0x0006575c      0x124 net/built-in.o
                0x0006575c                ping_start
 .text.ping_timeout_handler
                0x00065880       0x1c net/built-in.o
 .text.tftp_send
                0x0006589c      0x1c8 net/built-in.o
 .text.tftp_start
                0x00065a64      0x3a8 net/built-in.o
                0x00065a64                tftp_start
 .text.tftp_timeout_handler
                0x00065e0c       0x88 net/built-in.o
 .text.tftp_handler
                0x00065e94      0x3d0 net/built-in.o
 .text.do_dm_dump_devres
                0x00066264        0x8 test/dm/built-in.o
 .text.do_dm    0x0006626c       0x6c test/dm/built-in.o
 .text.do_dm_dump_uclass
                0x000662d8       0x10 test/dm/built-in.o
 .text.do_dm_dump_all
                0x000662e8       0x10 test/dm/built-in.o
 .text.__ashldi3
                0x000662f8       0x1c arch/arm/lib/lib.a(ashldi3.o)
                0x000662f8                __ashldi3
                0x000662f8                __aeabi_llsl
 .text.__ashrdi3
                0x00066314       0x1c arch/arm/lib/lib.a(ashrdi3.o)
                0x00066314                __ashrdi3
                0x00066314                __aeabi_lasr
 .text.__udivsi3
                0x00066330       0xe8 arch/arm/lib/lib.a(lib1funcs.o)
                0x00066330                __udivsi3
                0x00066330                __aeabi_uidiv
 .text.__divsi3
                0x00066418      0x118 arch/arm/lib/lib.a(lib1funcs.o)
                0x00066418                __aeabi_idiv
                0x00066418                __divsi3
 .text.__aeabi_uidivmod
                0x00066530       0x30 arch/arm/lib/lib.a(lib1funcs.o)
                0x00066530                __aeabi_uidivmod
                0x00066548                __aeabi_idivmod
 .text.Ldiv0    0x00066560       0x10 arch/arm/lib/lib.a(lib1funcs.o)
 .text.__lshldi3
                0x00066570       0x1c arch/arm/lib/lib.a(lshrdi3.o)
                0x00066570                __aeabi_llsr
                0x00066570                __lshrdi3
 .text.__div0   0x0006658c        0x4 arch/arm/lib/lib.a(div0.o)
                0x0006658c                __div0

.glue_7         0x00066590        0x0
 .glue_7        0x00000000        0x0 linker stubs

.glue_7t        0x00066590        0x0
 .glue_7t       0x00000000        0x0 linker stubs

.vfp11_veneer   0x00066590        0x0
 .vfp11_veneer  0x00000000        0x0 linker stubs

.v4_bx          0x00066590        0x0
 .v4_bx         0x00000000        0x0 linker stubs
                0x00066590                . = ALIGN (0x4)

.rodata         0x00066590    0x11233
 *(SORT(.rodata*))
 .rodata.efi_boot_services
                0x00066590       0xc8 lib/built-in.o
 .rodata.C.107.7713
                0x00066658       0x10 cmd/built-in.o
 .rodata.C.78.5606
                0x00066668       0x80 arch/arm/lib/built-in.o
 .rodata.CSWTCH.100
                0x000666e8       0x58 common/built-in.o
 .rodata.CSWTCH.102
                0x00066740       0x20 common/built-in.o
 .rodata.CSWTCH.122
                0x00066760       0xa4 fs/built-in.o
 .rodata.CSWTCH.133
                0x00066804       0x14 cmd/built-in.o
 .rodata.CSWTCH.80
                0x00066818        0xc fs/built-in.o
 .rodata.__FUNCTION__.5393
                0x00066824       0x14 net/built-in.o
 .rodata.__FUNCTION__.5861
                0x00066838       0x18 fs/built-in.o
 .rodata.__FUNCTION__.5879
                0x00066850       0x18 fs/built-in.o
 .rodata.__FUNCTION__.5886
                0x00066868       0x14 fs/built-in.o
 .rodata.__FUNCTION__.5888
                0x0006687c       0x18 fs/built-in.o
 .rodata.__FUNCTION__.5905
                0x00066894       0x18 fs/built-in.o
 .rodata.__FUNCTION__.5907
                0x000668ac       0x1c fs/built-in.o
 .rodata.__FUNCTION__.5908
                0x000668c8       0x18 fs/built-in.o
 .rodata.__FUNCTION__.5923
                0x000668e0       0x18 fs/built-in.o
 .rodata.__FUNCTION__.5945
                0x000668f8       0x18 fs/built-in.o
 .rodata.__FUNCTION__.5958
                0x00066910       0x18 fs/built-in.o
 .rodata.__FUNCTION__.5967
                0x00066928       0x18 fs/built-in.o
 .rodata.__FUNCTION__.5985
                0x00066940       0x18 fs/built-in.o
 .rodata.__FUNCTION__.6008
                0x00066958       0x18 fs/built-in.o
 .rodata.__FUNCTION__.6022
                0x00066970       0x1c fs/built-in.o
 .rodata.__FUNCTION__.6065
                0x0006698c       0x14 fs/built-in.o
 .rodata.__FUNCTION__.6087
                0x000669a0       0x14 fs/built-in.o
 .rodata.__FUNCTION__.6098
                0x000669b4       0x24 fs/built-in.o
 .rodata.__FUNCTION__.6106
                0x000669d8       0x20 fs/built-in.o
 .rodata.__FUNCTION__.6386
                0x000669f8       0x18 fs/built-in.o
 .rodata.__FUNCTION__.6426
                0x00066a10       0x14 fs/built-in.o
 .rodata.__FUNCTION__.6429
                0x00066a24       0x14 drivers/mtd/nand/built-in.o
 .rodata.__FUNCTION__.6564
                0x00066a38        0xc drivers/mtd/nand/built-in.o
 .rodata.__FUNCTION__.6597
                0x00066a44       0x1c fs/built-in.o
 .rodata.__FUNCTION__.6948
                0x00066a60       0x18 fs/built-in.o
 .rodata.__FUNCTION__.7067
                0x00066a78       0x18 fs/built-in.o
 .rodata.__FUNCTION__.7068
                0x00066a90       0x14 drivers/mtd/built-in.o
 .rodata.__FUNCTION__.7102
                0x00066aa4       0x18 fs/built-in.o
 .rodata.__FUNCTION__.7104
                0x00066abc       0x14 drivers/mtd/nand/built-in.o
 .rodata.__FUNCTION__.7149
                0x00066ad0       0x18 common/built-in.o
 .rodata.__FUNCTION__.7381
                0x00066ae8       0x10 fs/built-in.o
 .rodata.__FUNCTION__.7450
                0x00066af8       0x10 drivers/mtd/ubi/built-in.o
 .rodata.__FUNCTION__.7486
                0x00066b08       0x14 drivers/mtd/nand/built-in.o
 .rodata.__FUNCTION__.7536
                0x00066b1c       0x18 common/built-in.o
 .rodata.__FUNCTION__.8275
                0x00066b34       0x10 drivers/mtd/nand/built-in.o
 .rodata.__FUNCTION__.8503
                0x00066b44       0x14 fs/built-in.o
 .rodata.__FUNCTION__.8863
                0x00066b58       0x14 fs/built-in.o
 .rodata.__FUNCTION__.9277
                0x00066b6c       0x14 fs/built-in.o
 .rodata.__FUNCTION__.9454
                0x00066b80       0x18 fs/built-in.o
 .rodata.__FUNCTION__.9474
                0x00066b98       0x10 drivers/mtd/nand/built-in.o
 .rodata.__FUNCTION__.9485
                0x00066ba8       0x14 fs/built-in.o
 .rodata.__func__.5047
                0x00066bbc       0x10 common/built-in.o
 .rodata.__func__.5085
                0x00066bcc        0xc common/built-in.o
 .rodata.__func__.5111
                0x00066bd8        0xc common/built-in.o
 .rodata.__func__.5621
                0x00066be4       0x10 cmd/built-in.o
 .rodata.__func__.5700
                0x00066bf4       0x10 cmd/built-in.o
 .rodata.__func__.5817
                0x00066c04        0xc lib/built-in.o
 .rodata.__func__.6123
                0x00066c10       0x10 common/built-in.o
 .rodata.__func__.6622
                0x00066c20        0xc cmd/built-in.o
 .rodata.__func__.6790
                0x00066c2c       0x18 common/built-in.o
 .rodata.__func__.8665
                0x00066c44        0x8 fs/built-in.o
 .rodata.__func__.8770
                0x00066c4c       0x10 fs/built-in.o
 .rodata.__func__.8922
                0x00066c5c        0xc fs/built-in.o
 .rodata.__func__.8973
                0x00066c68        0xc fs/built-in.o
 .rodata.__func__.9066
                0x00066c74        0xc fs/built-in.o
 .rodata.__func__.9133
                0x00066c80        0xc fs/built-in.o
 .rodata._ctype
                0x00066c8c      0x100 lib/built-in.o
                0x00066c8c                _ctype
 .rodata.block_state_name
                0x00066d8c       0x28 fs/built-in.o
 .rodata.boot_os
                0x00066db4       0x60 common/built-in.o
 .rodata.cc_to_error
                0x00066e14       0x40 drivers/usb/host/built-in.o
 .rodata.cfi_flash_ids
                0x00066e54       0x18 drivers/mtd/built-in.o
 .rodata.column_parity_table
                0x00066e6c      0x100 fs/built-in.o
 .rodata.crc16_tab
                0x00066f6c      0x200 lib/built-in.o
 .rodata.crc16_table
                0x0006716c      0x200 fs/built-in.o
                0x0006716c                crc16_table
 .rodata.crc32table_le
                0x0006736c      0x400 drivers/mtd/ubi/built-in.o
 .rodata.crc_table
                0x0006776c      0x400 lib/built-in.o
 .rodata.day_name.5913
                0x00067b6c       0x18 fs/built-in.o
 .rodata.dbase.5415
                0x00067b84       0x40 lib/built-in.o
 .rodata.default_environment
                0x00067bc4       0x78 common/built-in.o
                0x00067bc4                default_environment
 .rodata.dext.5416
                0x00067c3c       0x40 lib/built-in.o
 .rodata.digits.4920
                0x00067c7c       0x10 lib/built-in.o
 .rodata.distfix
                0x00067c8c       0x80 lib/built-in.o
 .rodata.efi_block_io_guid
                0x00067d0c       0x10 lib/built-in.o
 .rodata.efi_con_in
                0x00067d1c        0xc lib/built-in.o
                0x00067d1c                efi_con_in
 .rodata.efi_con_out
                0x00067d28       0x28 lib/built-in.o
                0x00067d28                efi_con_out
 .rodata.efi_console_control
                0x00067d50        0xc lib/built-in.o
                0x00067d50                efi_console_control
 .rodata.efi_gop_guid
                0x00067d5c       0x10 lib/built-in.o
 .rodata.efi_guid_console_control
                0x00067d6c       0x10 lib/built-in.o
                0x00067d6c                efi_guid_console_control
 .rodata.efi_guid_device_path
                0x00067d7c       0x10 lib/built-in.o
                0x00067d7c                efi_guid_device_path
 .rodata.efi_guid_loaded_image
                0x00067d8c       0x10 lib/built-in.o
                0x00067d8c                efi_guid_loaded_image
 .rodata.efi_net_guid
                0x00067d9c       0x10 lib/built-in.o
 .rodata.efi_pxe_guid
                0x00067dac       0x10 lib/built-in.o
 .rodata.efi_runtime_detach_list
                0x00067dbc       0x38 lib/built-in.o
 .rodata.env_flags_varaccess_mask
                0x00067df4       0x10 common/built-in.o
 .rodata.env_flags_varaccess_rep
                0x00067e04        0x8 common/built-in.o
 .rodata.env_flags_vartype_rep
                0x00067e0c        0x8 common/built-in.o
 .rodata.erase_seq
                0x00067e14        0x4 common/built-in.o
 .rodata.fdt_errtable
                0x00067e18       0x34 lib/built-in.o
 .rodata.flash_offset_cfi
                0x00067e4c        0x8 drivers/mtd/built-in.o
 .rodata.freq_c
                0x00067e54        0x4 arch/arm/cpu/arm920t/built-in.o
 .rodata.freq_f
                0x00067e58        0xc arch/arm/cpu/arm920t/built-in.o
 .rodata.gpio_pin
                0x00067e64        0xc arch/arm/cpu/arm920t/built-in.o
 .rodata.hex_asc
                0x00067e70       0x14 lib/built-in.o
 .rodata.lbase.5413
                0x00067e84       0x40 lib/built-in.o
 .rodata.lenfix
                0x00067ec4      0x800 lib/built-in.o
 .rodata.lext.5414
                0x000686c4       0x40 lib/built-in.o
 .rodata.lzop_magic
                0x00068704        0xc lib/built-in.o
 .rodata.meta_chars
                0x00068710        0x4 lib/built-in.o
 .rodata.mon_lengths.5936
                0x00068714       0x60 fs/built-in.o
 .rodata.mon_name.5914
                0x00068774       0x24 fs/built-in.o
 .rodata.month_offset
                0x00068798       0x30 drivers/built-in.o
 .rodata.names.5029
                0x000687c8        0x8 lib/built-in.o
 .rodata.nand_ecc_precalc_table
                0x000687d0      0x100 drivers/mtd/nand/built-in.o
 .rodata.net_bcast_ethaddr
                0x000688d0        0x8 net/built-in.o
                0x000688d0                net_bcast_ethaddr
 .rodata.op_adv
                0x000688d8      0x100 cmd/built-in.o
                0x000688d8                op_adv
 .rodata.op_table
                0x000689d8       0x68 cmd/built-in.o
 .rodata.order.5720
                0x00068a40       0x28 lib/built-in.o
 .rodata.patterns
                0x00068a68        0x4 drivers/mtd/ubi/built-in.o
 .rodata.root_info
                0x00068a6c        0x8 drivers/built-in.o
 .rodata.tab_seq
                0x00068a74        0xc common/built-in.o
 .rodata.ubifs_super_operations
                0x00068a80       0x3c fs/built-in.o
                0x00068a80                ubifs_super_operations
 .rodata.uimage_arch
                0x00068abc      0x138 common/built-in.o
 .rodata.uimage_comp
                0x00068bf4       0x54 common/built-in.o
 .rodata.uimage_os
                0x00068c48       0x78 common/built-in.o
 .rodata.uimage_type
                0x00068cc0      0x15c common/built-in.o
 .rodata.usb_kbd_arrow
                0x00068e1c        0x4 common/built-in.o
 .rodata.usb_kbd_num_keypad
                0x00068e20       0x14 common/built-in.o
 .rodata.usb_kbd_numkey
                0x00068e34       0x1c common/built-in.o
 .rodata.usb_kbd_numkey_shifted
                0x00068e50       0x1c common/built-in.o
 .rodata.version_string
                0x00068e6c       0x30 cmd/built-in.o
                0x00068e6c                version_string
 .rodata.video_fontdata
                0x00068e9c     0x1000 common/built-in.o
 .rodata.weekdays
                0x00069e9c       0x1c cmd/built-in.o
 .rodata.year_lengths.5937
                0x00069eb8        0x8 fs/built-in.o
 .rodata        0x00069ec0        0x6 cmd/built-in.o
 .rodata        0x00069ec6        0x3 common/built-in.o
 .rodata        0x00069ec9        0x7 net/built-in.o
 .rodata.str1.1
                0x00069ed0       0x1d arch/arm/cpu/arm920t/built-in.o
 .rodata.str1.1
                0x00069eed      0x371 arch/arm/lib/built-in.o
                                0x3b4 (size before relaxing)
 .rodata.str1.1
                0x0006a25e       0x3f board/samsung/JZ2440/built-in.o
                                 0x43 (size before relaxing)
 .rodata.str1.1
                0x0006a29d     0x5184 cmd/built-in.o
                               0x548f (size before relaxing)
 .rodata.str1.1
                0x0006f421     0x23f8 common/built-in.o
                               0x275b (size before relaxing)
 .rodata.str1.1
                0x00071819      0x42a disk/built-in.o
                                0x49a (size before relaxing)
 .rodata.str1.1
                0x00071c43      0x176 drivers/built-in.o
                                0x1bd (size before relaxing)
 .rodata.str1.1
                0x00071db9      0x612 drivers/mtd/built-in.o
                                0x687 (size before relaxing)
 .rodata.str1.1
                0x000723cb      0xa94 drivers/mtd/nand/built-in.o
                                0xada (size before relaxing)
 .rodata.str1.1
                0x00072e5f      0x8fa drivers/mtd/ubi/built-in.o
                                0x934 (size before relaxing)
 .rodata.str1.1
                0x00073759      0x22a drivers/net/built-in.o
                                0x230 (size before relaxing)
 .rodata.str1.1
                0x00073983       0x57 drivers/serial/built-in.o
                                 0x92 (size before relaxing)
 .rodata.str1.1
                0x000739da      0x238 drivers/usb/host/built-in.o
 .rodata.str1.1
                0x00073c12     0x2b5c fs/built-in.o
                               0x30c7 (size before relaxing)
 .rodata.str1.1
                0x0007676e      0x7ef lib/built-in.o
                                0x86d (size before relaxing)
 .rodata.str1.1
                0x00076f5d      0x78d net/built-in.o
                                0x88f (size before relaxing)
 .rodata.str1.1
                0x000776ea       0xd9 test/dm/built-in.o
                                 0xe2 (size before relaxing)

.hash           0x000777c4       0x2c
 .hash          0x000777c4       0x2c arch/arm/cpu/arm920t/start.o
                0x000777f0                . = ALIGN (0x4)

.data           0x000777f0     0x6c7c
 *(.data*)
 .data.panel_info
                0x000777f0       0x10 board/samsung/JZ2440/built-in.o
                0x000777f0                panel_info
 .data.cmd_bootm_sub
                0x00077800       0xd8 cmd/built-in.o
 .data.bootm_help_text
                0x000778d8      0x38c cmd/built-in.o
 .data.source_help_text
                0x00077c64       0x50 cmd/built-in.o
 .data.bootefi_device_path
                0x00077cb4       0x88 cmd/built-in.o
 .data.loaded_image_info_obj
                0x00077d3c       0x2c cmd/built-in.o
 .data.bootefi_image_path
                0x00077d68       0x88 cmd/built-in.o
 .data.bootefi_help_text
                0x00077df0       0xc0 cmd/built-in.o
 .data.bootefi_device_obj
                0x00077eb0       0x2c cmd/built-in.o
 *fill*         0x00077edc        0x4 00
 .data.loaded_image_info
                0x00077ee0       0x58 cmd/built-in.o
 .data.default_tm
                0x00077f38       0x24 cmd/built-in.o
 .data.tabs.6900
                0x00077f5c       0x24 cmd/built-in.o
 .data.root.6138
                0x00077f80        0x4 cmd/built-in.o
 .data.fdt_help_text
                0x00077f84      0x5e4 cmd/built-in.o
 .data.do_echo  0x00078568        0x4 cmd/built-in.o
 .data.dp_last_length
                0x0007856c        0x4 cmd/built-in.o
 .data.mtdparts_help_text
                0x00078570      0x4d4 cmd/built-in.o
 .data.nand_help_text
                0x00078a44      0x478 cmd/built-in.o
 .data.imgextract_help_text
                0x00078ebc       0x58 cmd/built-in.o
 .data.env_help_text
                0x00078f14      0x250 cmd/built-in.o
 .data.env_id   0x00079164        0x4 cmd/built-in.o
 .data.cmd_env_sub
                0x00079168       0xf0 cmd/built-in.o
 .data.reserved_list
                0x00079258       0x84 common/built-in.o
 .data.retry_time
                0x000792dc        0x4 common/built-in.o
 .data.init_sequence_f
                0x000792e0       0x94 common/built-in.o
 .data.init_sequence_r
                0x00079374       0x74 common/built-in.o
                0x00079374                init_sequence_r
 .data.first_call
                0x000793e8        0x8 common/built-in.o
 .data.env_ptr  0x000793f0        0x4 common/built-in.o
                0x000793f0                env_ptr
 .data.env_name_spec
                0x000793f4        0x4 common/built-in.o
                0x000793f4                env_name_spec
 .data.of_busses
                0x000793f8       0x18 common/built-in.o
 .data.usb_scan_list
                0x00079410        0x8 common/built-in.o
 .data.do_splash.5499
                0x00079418        0x4 common/built-in.o
 .data.env_htab
                0x0007941c       0x10 common/built-in.o
                0x0007941c                env_htab
 .data.av_      0x0007942c      0x408 common/built-in.o
 .data.sbrk_base
                0x00079834        0x4 common/built-in.o
 .data.trim_threshold
                0x00079838        0x4 common/built-in.o
 .data.load_addr
                0x0007983c        0x4 common/built-in.o
                0x0007983c                load_addr
 .data.stdio_names
                0x00079840        0xc common/built-in.o
                0x00079840                stdio_names
 .data.hist_cur
                0x0007984c        0x4 common/built-in.o
 .data.led_dev  0x00079850       0x30 drivers/built-in.o
                0x00079850                led_dev
 .data.month_days
                0x00079880       0x30 drivers/built-in.o
 .data.mtd_partitions
                0x000798b0        0x8 drivers/mtd/built-in.o
 .data.cfi_flash_num_flash_banks
                0x000798b8        0x4 drivers/mtd/built-in.o
                0x000798b8                cfi_flash_num_flash_banks
 .data.nand_curr_device
                0x000798bc        0x4 drivers/mtd/nand/built-in.o
                0x000798bc                nand_curr_device
 .data.bbt_mirror_descr
                0x000798c0       0x24 drivers/mtd/nand/built-in.o
 .data.mirror_pattern
                0x000798e4        0x4 drivers/mtd/nand/built-in.o
 .data.bbt_main_no_oob_descr
                0x000798e8       0x24 drivers/mtd/nand/built-in.o
 .data.bbt_mirror_no_oob_descr
                0x0007990c       0x24 drivers/mtd/nand/built-in.o
 .data.bbt_pattern
                0x00079930        0x4 drivers/mtd/nand/built-in.o
 .data.scan_ff_pattern
                0x00079934        0x4 drivers/mtd/nand/built-in.o
 .data.bbt_main_descr
                0x00079938       0x24 drivers/mtd/nand/built-in.o
 .data.nand_flash_ids
                0x0007995c      0xd48 drivers/mtd/nand/built-in.o
                0x0007995c                nand_flash_ids
 .data.nand_manuf_ids
                0x0007a6a4       0x78 drivers/mtd/nand/built-in.o
                0x0007a6a4                nand_manuf_ids
 .data.nand_oob_8
                0x0007a71c      0xba8 drivers/mtd/nand/built-in.o
 .data.nand_oob_16
                0x0007b2c4      0xba8 drivers/mtd/nand/built-in.o
 .data.nand_oob_128
                0x0007be6c      0xba8 drivers/mtd/nand/built-in.o
 .data.nand_oob_64
                0x0007ca14      0xba8 drivers/mtd/nand/built-in.o
 .data.s3c24xx_serial0_device
                0x0007d5bc       0x30 drivers/serial/built-in.o
                0x0007d5bc                s3c24xx_serial0_device
 .data.s3c24xx_serial2_device
                0x0007d5ec       0x30 drivers/serial/built-in.o
                0x0007d5ec                s3c24xx_serial2_device
 .data.s3c24xx_serial1_device
                0x0007d61c       0x30 drivers/serial/built-in.o
                0x0007d61c                s3c24xx_serial1_device
 .data.root_hub_str_index1
                0x0007d64c       0x20 drivers/usb/host/built-in.o
 .data.root_hub_config_des
                0x0007d66c       0x1c drivers/usb/host/built-in.o
 .data.root_hub_dev_des
                0x0007d688       0x14 drivers/usb/host/built-in.o
 .data.root_hub_str_index0
                0x0007d69c        0x4 drivers/usb/host/built-in.o
 .data.fstypes  0x0007d6a0       0x58 fs/built-in.o
 .data.lzo_compr
                0x0007d6f8       0x1c fs/built-in.o
 .data.none_compr
                0x0007d714       0x1c fs/built-in.o
 .data.zlib_compr
                0x0007d730       0x1c fs/built-in.o
 .data.ubifs_fs_type
                0x0007d74c       0x1c fs/built-in.o
 .data.yaffsfs_deviceList
                0x0007d768        0x8 fs/built-in.o
                0x0007d768                yaffsfs_deviceList
 .data.efi_event
                0x0007d770       0x28 lib/built-in.o
 .data.loaded_image_info_obj.6085
                0x0007d798       0x2c lib/built-in.o
 .data.efi_class_maps
                0x0007d7c4        0x8 lib/built-in.o
 .data.efi_is_direct_boot
                0x0007d7cc        0x1 lib/built-in.o
 *fill*         0x0007d7cd        0x3 00
 .data.efi_obj_list
                0x0007d7d0        0x8 lib/built-in.o
                0x0007d7d0                efi_obj_list
 .data.console_columns
                0x0007d7d8        0x4 lib/built-in.o
 .data.console_rows
                0x0007d7dc        0x4 lib/built-in.o
 .data.efi_con_mode
                0x0007d7e0       0x18 lib/built-in.o
 .data.efi_mem  0x0007d7f8        0x8 lib/built-in.o
                0x0007d7f8                efi_mem
 .data.BZ2_crc32Table
                0x0007d800      0x400 lib/built-in.o
                0x0007d800                BZ2_crc32Table
 .data.BZ2_rNums
                0x0007dc00      0x800 lib/built-in.o
                0x0007dc00                BZ2_rNums
 .data.first_call.5676
                0x0007e400        0x4 net/built-in.o
 .data.net_native_vlan
                0x0007e404        0x2 net/built-in.o
                0x0007e404                net_native_vlan
 .data.net_our_vlan
                0x0007e406        0x2 net/built-in.o
                0x0007e406                net_our_vlan
 .data.nfs_offset
                0x0007e408        0x4 net/built-in.o
 .data.supported_nfs_versions
                0x0007e40c        0x1 net/built-in.o
 *fill*         0x0007e40d        0x3 00
 .data.timeout_count_max
                0x0007e410        0x4 net/built-in.o
 .data.tftp_block_size_option
                0x0007e414        0x2 net/built-in.o
 *fill*         0x0007e416        0x2 00
 .data.tftp_timeout_count_max
                0x0007e418        0x4 net/built-in.o
                0x0007e418                tftp_timeout_count_max
 .data.timeout_ms
                0x0007e41c        0x4 net/built-in.o
 .data.tftp_block_size
                0x0007e420        0x2 net/built-in.o
 *fill*         0x0007e422        0x2 00
 .data.test_commands
                0x0007e424       0x48 test/dm/built-in.o

.got            0x0007e46c        0x0
 .got           0x00000000        0x0 arch/arm/cpu/arm920t/start.o

.got.plt        0x0007e46c        0xc
 .got.plt       0x0007e46c        0xc arch/arm/cpu/arm920t/start.o
                0x0007e46c                _GLOBAL_OFFSET_TABLE_
                0x0007e478                . = ALIGN (0x4)
                0x0007e478                . = .
                0x0007e478                . = ALIGN (0x4)

.u_boot_list    0x0007e478      0x914
 *(SORT(.u_boot_list*))
 .u_boot_list_2_blk_driver_1
                0x0007e478        0x0 drivers/built-in.o
 .u_boot_list_2_blk_driver_3
                0x0007e478        0x0 drivers/built-in.o
 .u_boot_list_2_cmd_1
                0x0007e478        0x0 cmd/built-in.o
 .u_boot_list_2_cmd_1
                0x0007e478        0x0 common/built-in.o
 .u_boot_list_2_cmd_2_base
                0x0007e478       0x18 cmd/built-in.o
                0x0007e478                _u_boot_list_2_cmd_2_base
 .u_boot_list_2_cmd_2_boot
                0x0007e490       0x18 cmd/built-in.o
                0x0007e490                _u_boot_list_2_cmd_2_boot
 .u_boot_list_2_cmd_2_bootd
                0x0007e4a8       0x18 cmd/built-in.o
                0x0007e4a8                _u_boot_list_2_cmd_2_bootd
 .u_boot_list_2_cmd_2_bootefi
                0x0007e4c0       0x18 cmd/built-in.o
                0x0007e4c0                _u_boot_list_2_cmd_2_bootefi
 .u_boot_list_2_cmd_2_bootelf
                0x0007e4d8       0x18 cmd/built-in.o
                0x0007e4d8                _u_boot_list_2_cmd_2_bootelf
 .u_boot_list_2_cmd_2_bootm
                0x0007e4f0       0x18 cmd/built-in.o
                0x0007e4f0                _u_boot_list_2_cmd_2_bootm
 .u_boot_list_2_cmd_2_bootp
                0x0007e508       0x18 cmd/built-in.o
                0x0007e508                _u_boot_list_2_cmd_2_bootp
 .u_boot_list_2_cmd_2_bootvx
                0x0007e520       0x18 cmd/built-in.o
                0x0007e520                _u_boot_list_2_cmd_2_bootvx
 .u_boot_list_2_cmd_2_chpart
                0x0007e538       0x18 cmd/built-in.o
                0x0007e538                _u_boot_list_2_cmd_2_chpart
 .u_boot_list_2_cmd_2_cls
                0x0007e550       0x18 common/built-in.o
                0x0007e550                _u_boot_list_2_cmd_2_cls
 .u_boot_list_2_cmd_2_cmp
                0x0007e568       0x18 cmd/built-in.o
                0x0007e568                _u_boot_list_2_cmd_2_cmp
 .u_boot_list_2_cmd_2_cp
                0x0007e580       0x18 cmd/built-in.o
                0x0007e580                _u_boot_list_2_cmd_2_cp
 .u_boot_list_2_cmd_2_crc32
                0x0007e598       0x18 cmd/built-in.o
                0x0007e598                _u_boot_list_2_cmd_2_crc32
 .u_boot_list_2_cmd_2_date
                0x0007e5b0       0x18 cmd/built-in.o
                0x0007e5b0                _u_boot_list_2_cmd_2_date
 .u_boot_list_2_cmd_2_dhcp
                0x0007e5c8       0x18 cmd/built-in.o
                0x0007e5c8                _u_boot_list_2_cmd_2_dhcp
 .u_boot_list_2_cmd_2_dm
                0x0007e5e0       0x18 test/dm/built-in.o
                0x0007e5e0                _u_boot_list_2_cmd_2_dm
 .u_boot_list_2_cmd_2_echo
                0x0007e5f8       0x18 cmd/built-in.o
                0x0007e5f8                _u_boot_list_2_cmd_2_echo
 .u_boot_list_2_cmd_2_editenv
                0x0007e610       0x18 cmd/built-in.o
                0x0007e610                _u_boot_list_2_cmd_2_editenv
 .u_boot_list_2_cmd_2_env
                0x0007e628       0x18 cmd/built-in.o
                0x0007e628                _u_boot_list_2_cmd_2_env
 .u_boot_list_2_cmd_2_erase
                0x0007e640       0x18 cmd/built-in.o
                0x0007e640                _u_boot_list_2_cmd_2_erase
 .u_boot_list_2_cmd_2_exit
                0x0007e658       0x18 cmd/built-in.o
                0x0007e658                _u_boot_list_2_cmd_2_exit
 .u_boot_list_2_cmd_2_false
                0x0007e670       0x18 cmd/built-in.o
                0x0007e670                _u_boot_list_2_cmd_2_false
 .u_boot_list_2_cmd_2_fdt
                0x0007e688       0x18 cmd/built-in.o
                0x0007e688                _u_boot_list_2_cmd_2_fdt
 .u_boot_list_2_cmd_2_flinfo
                0x0007e6a0       0x18 cmd/built-in.o
                0x0007e6a0                _u_boot_list_2_cmd_2_flinfo
 .u_boot_list_2_cmd_2_go
                0x0007e6b8       0x18 cmd/built-in.o
                0x0007e6b8                _u_boot_list_2_cmd_2_go
 .u_boot_list_2_cmd_2_help
                0x0007e6d0       0x18 cmd/built-in.o
                0x0007e6d0                _u_boot_list_2_cmd_2_help
 .u_boot_list_2_cmd_2_iminfo
                0x0007e6e8       0x18 cmd/built-in.o
                0x0007e6e8                _u_boot_list_2_cmd_2_iminfo
 .u_boot_list_2_cmd_2_imls
                0x0007e700       0x18 cmd/built-in.o
                0x0007e700                _u_boot_list_2_cmd_2_imls
 .u_boot_list_2_cmd_2_imxtract
                0x0007e718       0x18 cmd/built-in.o
                0x0007e718                _u_boot_list_2_cmd_2_imxtract
 .u_boot_list_2_cmd_2_itest
                0x0007e730       0x18 cmd/built-in.o
                0x0007e730                _u_boot_list_2_cmd_2_itest
 .u_boot_list_2_cmd_2_lcdputs
                0x0007e748       0x18 common/built-in.o
                0x0007e748                _u_boot_list_2_cmd_2_lcdputs
 .u_boot_list_2_cmd_2_loadb
                0x0007e760       0x18 cmd/built-in.o
                0x0007e760                _u_boot_list_2_cmd_2_loadb
 .u_boot_list_2_cmd_2_loads
                0x0007e778       0x18 cmd/built-in.o
                0x0007e778                _u_boot_list_2_cmd_2_loads
 .u_boot_list_2_cmd_2_loadx
                0x0007e790       0x18 cmd/built-in.o
                0x0007e790                _u_boot_list_2_cmd_2_loadx
 .u_boot_list_2_cmd_2_loady
                0x0007e7a8       0x18 cmd/built-in.o
                0x0007e7a8                _u_boot_list_2_cmd_2_loady
 .u_boot_list_2_cmd_2_loop
                0x0007e7c0       0x18 cmd/built-in.o
                0x0007e7c0                _u_boot_list_2_cmd_2_loop
 .u_boot_list_2_cmd_2_md
                0x0007e7d8       0x18 cmd/built-in.o
                0x0007e7d8                _u_boot_list_2_cmd_2_md
 .u_boot_list_2_cmd_2_mm
                0x0007e7f0       0x18 cmd/built-in.o
                0x0007e7f0                _u_boot_list_2_cmd_2_mm
 .u_boot_list_2_cmd_2_mtdparts
                0x0007e808       0x18 cmd/built-in.o
                0x0007e808                _u_boot_list_2_cmd_2_mtdparts
 .u_boot_list_2_cmd_2_mw
                0x0007e820       0x18 cmd/built-in.o
                0x0007e820                _u_boot_list_2_cmd_2_mw
 .u_boot_list_2_cmd_2_nand
                0x0007e838       0x18 cmd/built-in.o
                0x0007e838                _u_boot_list_2_cmd_2_nand
 .u_boot_list_2_cmd_2_nboot
                0x0007e850       0x18 cmd/built-in.o
                0x0007e850                _u_boot_list_2_cmd_2_nboot
 .u_boot_list_2_cmd_2_nfs
                0x0007e868       0x18 cmd/built-in.o
                0x0007e868                _u_boot_list_2_cmd_2_nfs
 .u_boot_list_2_cmd_2_nm
                0x0007e880       0x18 cmd/built-in.o
                0x0007e880                _u_boot_list_2_cmd_2_nm
 .u_boot_list_2_cmd_2_ping
                0x0007e898       0x18 cmd/built-in.o
                0x0007e898                _u_boot_list_2_cmd_2_ping
 .u_boot_list_2_cmd_2_printenv
                0x0007e8b0       0x18 cmd/built-in.o
                0x0007e8b0                _u_boot_list_2_cmd_2_printenv
 .u_boot_list_2_cmd_2_protect
                0x0007e8c8       0x18 cmd/built-in.o
                0x0007e8c8                _u_boot_list_2_cmd_2_protect
 .u_boot_list_2_cmd_2_question_mark
                0x0007e8e0       0x18 cmd/built-in.o
                0x0007e8e0                _u_boot_list_2_cmd_2_question_mark
 .u_boot_list_2_cmd_2_reginfo
                0x0007e8f8       0x18 cmd/built-in.o
                0x0007e8f8                _u_boot_list_2_cmd_2_reginfo
 .u_boot_list_2_cmd_2_reset
                0x0007e910       0x18 cmd/built-in.o
                0x0007e910                _u_boot_list_2_cmd_2_reset
 .u_boot_list_2_cmd_2_run
                0x0007e928       0x18 cmd/built-in.o
                0x0007e928                _u_boot_list_2_cmd_2_run
 .u_boot_list_2_cmd_2_saveenv
                0x0007e940       0x18 cmd/built-in.o
                0x0007e940                _u_boot_list_2_cmd_2_saveenv
 .u_boot_list_2_cmd_2_setcurs
                0x0007e958       0x18 common/built-in.o
                0x0007e958                _u_boot_list_2_cmd_2_setcurs
 .u_boot_list_2_cmd_2_setenv
                0x0007e970       0x18 cmd/built-in.o
                0x0007e970                _u_boot_list_2_cmd_2_setenv
 .u_boot_list_2_cmd_2_showvar
                0x0007e988       0x18 common/built-in.o
                0x0007e988                _u_boot_list_2_cmd_2_showvar
 .u_boot_list_2_cmd_2_source
                0x0007e9a0       0x18 cmd/built-in.o
                0x0007e9a0                _u_boot_list_2_cmd_2_source
 .u_boot_list_2_cmd_2_test
                0x0007e9b8       0x18 cmd/built-in.o
                0x0007e9b8                _u_boot_list_2_cmd_2_test
 .u_boot_list_2_cmd_2_tftpboot
                0x0007e9d0       0x18 cmd/built-in.o
                0x0007e9d0                _u_boot_list_2_cmd_2_tftpboot
 .u_boot_list_2_cmd_2_true
                0x0007e9e8       0x18 cmd/built-in.o
                0x0007e9e8                _u_boot_list_2_cmd_2_true
 .u_boot_list_2_cmd_2_ubi
                0x0007ea00       0x18 cmd/built-in.o
                0x0007ea00                _u_boot_list_2_cmd_2_ubi
 .u_boot_list_2_cmd_2_ubifsload
                0x0007ea18       0x18 cmd/built-in.o
                0x0007ea18                _u_boot_list_2_cmd_2_ubifsload
 .u_boot_list_2_cmd_2_ubifsls
                0x0007ea30       0x18 cmd/built-in.o
                0x0007ea30                _u_boot_list_2_cmd_2_ubifsls
 .u_boot_list_2_cmd_2_ubifsmount
                0x0007ea48       0x18 cmd/built-in.o
                0x0007ea48                _u_boot_list_2_cmd_2_ubifsmount
 .u_boot_list_2_cmd_2_ubifsumount
                0x0007ea60       0x18 cmd/built-in.o
                0x0007ea60                _u_boot_list_2_cmd_2_ubifsumount
 .u_boot_list_2_cmd_2_usb
                0x0007ea78       0x18 cmd/built-in.o
                0x0007ea78                _u_boot_list_2_cmd_2_usb
 .u_boot_list_2_cmd_2_version
                0x0007ea90       0x18 cmd/built-in.o
                0x0007ea90                _u_boot_list_2_cmd_2_version
 .u_boot_list_2_cmd_2_ydevconfig
                0x0007eaa8       0x18 cmd/built-in.o
                0x0007eaa8                _u_boot_list_2_cmd_2_ydevconfig
 .u_boot_list_2_cmd_2_ydevls
                0x0007eac0       0x18 cmd/built-in.o
                0x0007eac0                _u_boot_list_2_cmd_2_ydevls
 .u_boot_list_2_cmd_2_yls
                0x0007ead8       0x18 cmd/built-in.o
                0x0007ead8                _u_boot_list_2_cmd_2_yls
 .u_boot_list_2_cmd_2_ymkdir
                0x0007eaf0       0x18 cmd/built-in.o
                0x0007eaf0                _u_boot_list_2_cmd_2_ymkdir
 .u_boot_list_2_cmd_2_ymount
                0x0007eb08       0x18 cmd/built-in.o
                0x0007eb08                _u_boot_list_2_cmd_2_ymount
 .u_boot_list_2_cmd_2_ymv
                0x0007eb20       0x18 cmd/built-in.o
                0x0007eb20                _u_boot_list_2_cmd_2_ymv
 .u_boot_list_2_cmd_2_yrd
                0x0007eb38       0x18 cmd/built-in.o
                0x0007eb38                _u_boot_list_2_cmd_2_yrd
 .u_boot_list_2_cmd_2_yrdm
                0x0007eb50       0x18 cmd/built-in.o
                0x0007eb50                _u_boot_list_2_cmd_2_yrdm
 .u_boot_list_2_cmd_2_yrm
                0x0007eb68       0x18 cmd/built-in.o
                0x0007eb68                _u_boot_list_2_cmd_2_yrm
 .u_boot_list_2_cmd_2_yrmdir
                0x0007eb80       0x18 cmd/built-in.o
                0x0007eb80                _u_boot_list_2_cmd_2_yrmdir
 .u_boot_list_2_cmd_2_ytrace
                0x0007eb98       0x18 cmd/built-in.o
                0x0007eb98                _u_boot_list_2_cmd_2_ytrace
 .u_boot_list_2_cmd_2_yumount
                0x0007ebb0       0x18 cmd/built-in.o
                0x0007ebb0                _u_boot_list_2_cmd_2_yumount
 .u_boot_list_2_cmd_2_ywr
                0x0007ebc8       0x18 cmd/built-in.o
                0x0007ebc8                _u_boot_list_2_cmd_2_ywr
 .u_boot_list_2_cmd_2_ywrm
                0x0007ebe0       0x18 cmd/built-in.o
                0x0007ebe0                _u_boot_list_2_cmd_2_ywrm
 .u_boot_list_2_cmd_3
                0x0007ebf8        0x0 cmd/built-in.o
 .u_boot_list_2_cmd_3
                0x0007ebf8        0x0 common/built-in.o
 .u_boot_list_2_driver_1
                0x0007ebf8        0x0 drivers/built-in.o
 .u_boot_list_2_driver_2_cfi_flash
                0x0007ebf8       0x44 drivers/mtd/built-in.o
                0x0007ebf8                _u_boot_list_2_driver_2_cfi_flash
 .u_boot_list_2_driver_2_root_driver
                0x0007ec3c       0x44 drivers/built-in.o
                0x0007ec3c                _u_boot_list_2_driver_2_root_driver
 .u_boot_list_2_driver_3
                0x0007ec80        0x0 drivers/built-in.o
 .u_boot_list_2_driver_info_1
                0x0007ec80        0x0 drivers/built-in.o
 .u_boot_list_2_driver_info_3
                0x0007ec80        0x0 drivers/built-in.o
 .u_boot_list_2_env_clbk_1
                0x0007ec80        0x0 common/built-in.o
 .u_boot_list_2_env_clbk_2_baudrate
                0x0007ec80        0x8 drivers/serial/built-in.o
                0x0007ec80                _u_boot_list_2_env_clbk_2_baudrate
 .u_boot_list_2_env_clbk_2_bootfile
                0x0007ec88        0x8 net/built-in.o
                0x0007ec88                _u_boot_list_2_env_clbk_2_bootfile
 .u_boot_list_2_env_clbk_2_callbacks
                0x0007ec90        0x8 common/built-in.o
                0x0007ec90                _u_boot_list_2_env_clbk_2_callbacks
 .u_boot_list_2_env_clbk_2_console
                0x0007ec98        0x8 common/built-in.o
                0x0007ec98                _u_boot_list_2_env_clbk_2_console
 .u_boot_list_2_env_clbk_2_ethaddr
                0x0007eca0        0x8 net/built-in.o
                0x0007eca0                _u_boot_list_2_env_clbk_2_ethaddr
 .u_boot_list_2_env_clbk_2_flags
                0x0007eca8        0x8 common/built-in.o
                0x0007eca8                _u_boot_list_2_env_clbk_2_flags
 .u_boot_list_2_env_clbk_2_gatewayip
                0x0007ecb0        0x8 net/built-in.o
                0x0007ecb0                _u_boot_list_2_env_clbk_2_gatewayip
 .u_boot_list_2_env_clbk_2_ipaddr
                0x0007ecb8        0x8 net/built-in.o
                0x0007ecb8                _u_boot_list_2_env_clbk_2_ipaddr
 .u_boot_list_2_env_clbk_2_loadaddr
                0x0007ecc0        0x8 common/built-in.o
                0x0007ecc0                _u_boot_list_2_env_clbk_2_loadaddr
 .u_boot_list_2_env_clbk_2_netmask
                0x0007ecc8        0x8 net/built-in.o
                0x0007ecc8                _u_boot_list_2_env_clbk_2_netmask
 .u_boot_list_2_env_clbk_2_nvlan
                0x0007ecd0        0x8 net/built-in.o
                0x0007ecd0                _u_boot_list_2_env_clbk_2_nvlan
 .u_boot_list_2_env_clbk_2_serverip
                0x0007ecd8        0x8 net/built-in.o
                0x0007ecd8                _u_boot_list_2_env_clbk_2_serverip
 .u_boot_list_2_env_clbk_2_vlan
                0x0007ece0        0x8 net/built-in.o
                0x0007ece0                _u_boot_list_2_env_clbk_2_vlan
 .u_boot_list_2_env_clbk_3
                0x0007ece8        0x0 common/built-in.o
 .u_boot_list_2_part_driver_1
                0x0007ece8        0x0 disk/built-in.o
 .u_boot_list_2_part_driver_2_dos
                0x0007ece8       0x14 disk/built-in.o
                0x0007ece8                _u_boot_list_2_part_driver_2_dos
 .u_boot_list_2_part_driver_3
                0x0007ecfc        0x0 disk/built-in.o
 .u_boot_list_2_uclass_1
                0x0007ecfc        0x0 drivers/built-in.o
 .u_boot_list_2_uclass_2_mtd
                0x0007ecfc       0x48 drivers/mtd/built-in.o
                0x0007ecfc                _u_boot_list_2_uclass_2_mtd
 .u_boot_list_2_uclass_2_root
                0x0007ed44       0x48 drivers/built-in.o
                0x0007ed44                _u_boot_list_2_uclass_2_root
 .u_boot_list_2_uclass_3
                0x0007ed8c        0x0 drivers/built-in.o
                0x0007ed8c                . = ALIGN (0x4)

.__efi_runtime_start
                0x0007ed8c        0x0
 *(.__efi_runtime_start)
 .__efi_runtime_start
                0x0007ed8c        0x0 arch/arm/lib/built-in.o

.efi_runtime    0x0007ed90       0xe0
 *(efi_runtime_text)
 efi_runtime_text
                0x0007ed90       0x18 lib/built-in.o
 *(efi_runtime_data)
 efi_runtime_data
                0x0007eda8       0xc8 lib/built-in.o
                0x0007eda8                systab
                0x0007ee20                efi_runtime_services

.__efi_runtime_stop
                0x0007ee70        0x0
 *(.__efi_runtime_stop)
 .__efi_runtime_stop
                0x0007ee70        0x0 arch/arm/lib/built-in.o

.efi_runtime_rel_start
                0x0007ee70        0x0
 *(.__efi_runtime_rel_start)
 .__efi_runtime_rel_start
                0x0007ee70        0x0 arch/arm/lib/built-in.o

.efi_runtime_rel
                0x0007ee70       0x90
 *(.relefi_runtime_text)
 *(.relefi_runtime_data)
 .relefi_runtime_data
                0x0007ee70       0x90 arch/arm/cpu/arm920t/start.o

.efi_runtime_rel_stop
                0x0007ef00        0x0
 *(.__efi_runtime_rel_stop)
 .__efi_runtime_rel_stop
                0x0007ef00        0x0 arch/arm/lib/built-in.o
                0x0007ef00                . = ALIGN (0x4)

.image_copy_end
                0x0007ef00        0x0
 *(.__image_copy_end)
 .__image_copy_end
                0x0007ef00        0x0 arch/arm/lib/built-in.o

.rel_dyn_start  0x0007ef00        0x0
 *(.__rel_dyn_start)
 .__rel_dyn_start
                0x0007ef00        0x0 arch/arm/lib/built-in.o

.rel.dyn        0x0007ef00     0xa1f0
 *(.rel*)
 .rel.got       0x00000000        0x0 arch/arm/cpu/arm920t/start.o
 .rel.plt       0x00000000        0x0 arch/arm/cpu/arm920t/start.o
 .rel.text.print_cpuinfo
                0x0007ef00       0x20 arch/arm/cpu/arm920t/start.o
 .rel.text.led_on
                0x00000000        0x0 arch/arm/cpu/arm920t/start.o
 .rel.text.led_off
                0x00000000        0x0 arch/arm/cpu/arm920t/start.o
 .rel.text.__led_init
                0x0007ef20        0x8 arch/arm/cpu/arm920t/start.o
 .rel.text.__led_toggle
                0x00000000        0x0 arch/arm/cpu/arm920t/start.o
 .rel.text.__led_set
                0x0007ef28        0x8 arch/arm/cpu/arm920t/start.o
 .rel.rodata.freq_f
                0x0007ef30       0x18 arch/arm/cpu/arm920t/start.o
 .rel.text      0x0007ef48       0x20 arch/arm/cpu/arm920t/start.o
 .rel.vectors   0x0007ef68       0x38 arch/arm/cpu/arm920t/start.o
 .rel.text.relocate_vectors
                0x0007efa0       0x20 arch/arm/cpu/arm920t/start.o
 .rel.text.boot_prep_vxworks
                0x0007efc0       0x10 arch/arm/cpu/arm920t/start.o
 .rel.text.boot_prep_linux
                0x0007efd0       0x18 arch/arm/cpu/arm920t/start.o
 .rel.text.boot_jump_linux
                0x0007efe8       0x28 arch/arm/cpu/arm920t/start.o
 .rel.text.interrupt_init
                0x0007f010        0x8 arch/arm/cpu/arm920t/start.o
 .rel.text.show_regs
                0x0007f018       0x60 arch/arm/cpu/arm920t/start.o
 .rel.text.bad_mode
                0x0007f078        0x8 arch/arm/cpu/arm920t/start.o
 .rel.text.do_irq
                0x0007f080        0x8 arch/arm/cpu/arm920t/start.o
 .rel.text.do_fiq
                0x0007f088        0x8 arch/arm/cpu/arm920t/start.o
 .rel.text.do_not_used
                0x0007f090        0x8 arch/arm/cpu/arm920t/start.o
 .rel.text.do_data_abort
                0x0007f098        0x8 arch/arm/cpu/arm920t/start.o
 .rel.text.do_prefetch_abort
                0x0007f0a0        0x8 arch/arm/cpu/arm920t/start.o
 .rel.text.do_software_interrupt
                0x0007f0a8        0x8 arch/arm/cpu/arm920t/start.o
 .rel.text.do_undefined_instruction
                0x0007f0b0        0x8 arch/arm/cpu/arm920t/start.o
 .rel.text.do_reset
                0x0007f0b8        0x8 arch/arm/cpu/arm920t/start.o
 .rel.text.check_cache_range
                0x00000000        0x0 arch/arm/cpu/arm920t/start.o
 .rel.text.enable_caches
                0x00000000        0x0 arch/arm/cpu/arm920t/start.o
 .rel.rodata.C.78.5606
                0x0007f0c0      0x100 arch/arm/cpu/arm920t/start.o
 .rel.text.lcd_show_board_info
                0x0007f1c0       0x28 arch/arm/cpu/arm920t/start.o
 .rel.text.do_go
                0x0007f1e8       0x10 arch/arm/cpu/arm920t/start.o
 .rel.text.do_imls
                0x0007f1f8       0x30 arch/arm/cpu/arm920t/start.o
 .rel.text.image_info
                0x0007f228       0x40 arch/arm/cpu/arm920t/start.o
 .rel.text.do_iminfo
                0x0007f268        0x8 arch/arm/cpu/arm920t/start.o
 .rel.text.do_bootd
                0x0007f270        0x8 arch/arm/cpu/arm920t/start.o
 .rel.text.do_bootm
                0x0007f278       0x18 arch/arm/cpu/arm920t/start.o
 .rel.text.bootm_maybe_autostart
                0x0007f290       0x20 arch/arm/cpu/arm920t/start.o
 .rel.text.do_help
                0x0007f2b0       0x10 arch/arm/cpu/arm920t/start.o
 .rel.text.do_version
                0x0007f2c0       0x20 arch/arm/cpu/arm920t/start.o
 .rel.text.source
                0x0007f2e0       0x38 arch/arm/cpu/arm920t/start.o
 .rel.text.do_source
                0x0007f318        0x8 arch/arm/cpu/arm920t/start.o
 .rel.text.bootefi_open_dp
                0x0007f320        0x8 arch/arm/cpu/arm920t/start.o
 .rel.text.do_bootefi_exec
                0x0007f328       0x50 arch/arm/cpu/arm920t/start.o
 .rel.text.do_bootefi
                0x0007f378       0x10 arch/arm/cpu/arm920t/start.o
 .rel.text.efi_set_bootdev
                0x0007f388       0x30 arch/arm/cpu/arm920t/start.o
 .rel.text.do_date
                0x0007f3b8       0x50 arch/arm/cpu/arm920t/start.o
 .rel.text.do_echo
                0x0007f408        0x8 arch/arm/cpu/arm920t/start.o
 .rel.text.valid_elf_image
                0x0007f410       0x10 arch/arm/cpu/arm920t/start.o
 .rel.text.do_bootvx
                0x0007f420       0xe0 arch/arm/cpu/arm920t/start.o
 .rel.text.do_bootelf
                0x0007f500       0x28 arch/arm/cpu/arm920t/start.o
 .rel.text.is_printable_string
                0x0007f528        0x8 arch/arm/cpu/arm920t/start.o
 .rel.text.fdt_valid
                0x0007f530       0x28 arch/arm/cpu/arm920t/start.o
 .rel.text.print_data
                0x0007f558       0x58 arch/arm/cpu/arm920t/start.o
 .rel.text.set_working_fdt_addr
                0x0007f5b0       0x10 arch/arm/cpu/arm920t/start.o
 .rel.text.do_fdt
                0x0007f5c0      0x248 arch/arm/cpu/arm920t/start.o
 .rel.text.flash_sect_roundb
                0x0007f808       0x18 arch/arm/cpu/arm920t/start.o
 .rel.text.flash_fill_sect_ranges
                0x0007f820       0x30 arch/arm/cpu/arm920t/start.o
 .rel.text.abbrev_spec
                0x0007f850       0x10 arch/arm/cpu/arm920t/start.o
 .rel.text.do_flinfo
                0x0007f860       0x20 arch/arm/cpu/arm920t/start.o
 .rel.text.flash_sect_protect
                0x0007f880       0x30 arch/arm/cpu/arm920t/start.o
 .rel.text.do_protect
                0x0007f8b0       0x90 arch/arm/cpu/arm920t/start.o
 .rel.text.flash_sect_erase
                0x0007f940       0x20 arch/arm/cpu/arm920t/start.o
 .rel.text.do_flerase
                0x0007f960       0x58 arch/arm/cpu/arm920t/start.o
 .rel.text.binary_test
                0x0007f9b8       0x78 arch/arm/cpu/arm920t/start.o
 .rel.text.do_itest
                0x0007fa30       0x40 arch/arm/cpu/arm920t/start.o
 .rel.text.bin_data_init
                0x0007fa70       0x18 arch/arm/cpu/arm920t/start.o
 .rel.text.bin_data_char
                0x0007fa88       0x10 arch/arm/cpu/arm920t/start.o
 .rel.text.load_serial_ymodem
                0x0007fa98       0x20 arch/arm/cpu/arm920t/start.o
 .rel.text.load_serial
                0x0007fab8       0x68 arch/arm/cpu/arm920t/start.o
 .rel.text.do_load_serial
                0x0007fb20       0x30 arch/arm/cpu/arm920t/start.o
 .rel.text.T.150
                0x0007fb50       0x18 arch/arm/cpu/arm920t/start.o
 .rel.text.do_load_serial_bin
                0x0007fb68      0x118 arch/arm/cpu/arm920t/start.o
 .rel.text.do_mem_mw
                0x0007fc80        0x8 arch/arm/cpu/arm920t/start.o
 .rel.text.do_mem_base
                0x0007fc88       0x10 arch/arm/cpu/arm920t/start.o
 .rel.text.do_mem_cmp
                0x0007fc98       0x38 arch/arm/cpu/arm920t/start.o
 .rel.text.do_mem_crc
                0x0007fcd0        0x8 arch/arm/cpu/arm920t/start.o
 .rel.text.do_mem_cp
                0x0007fcd8       0x20 arch/arm/cpu/arm920t/start.o
 .rel.text.mod_mem
                0x0007fcf8       0x48 arch/arm/cpu/arm920t/start.o
 .rel.text.do_mem_md
                0x0007fd40       0x20 arch/arm/cpu/arm920t/start.o
 .rel.text.device_find
                0x00000000        0x0 arch/arm/cpu/arm920t/start.o
 .rel.text.mtd_part_info
                0x0007fd60       0x20 arch/arm/cpu/arm920t/start.o
 .rel.text.memsize_format
                0x0007fd80       0x20 arch/arm/cpu/arm920t/start.o
 .rel.text.index_partitions
                0x0007fda0       0x28 arch/arm/cpu/arm920t/start.o
 .rel.text.current_save
                0x0007fdc8       0x40 arch/arm/cpu/arm920t/start.o
 .rel.text.part_sort_add
                0x0007fe08       0x18 arch/arm/cpu/arm920t/start.o
 .rel.text.device_del
                0x0007fe20       0x18 arch/arm/cpu/arm920t/start.o
 .rel.text.get_mtd_info
                0x0007fe38       0x28 arch/arm/cpu/arm920t/start.o
 .rel.text.part_validate
                0x0007fe60       0x48 arch/arm/cpu/arm920t/start.o
 .rel.text.device_parse
                0x0007fea8       0x88 arch/arm/cpu/arm920t/start.o
 .rel.text.getenv_mtdparts
                0x0007ff30        0x8 arch/arm/cpu/arm920t/start.o
 .rel.text.mtd_id_parse
                0x0007ff38       0x30 arch/arm/cpu/arm920t/start.o
 .rel.text.find_dev_and_part
                0x0007ff68       0x40 arch/arm/cpu/arm920t/start.o
 .rel.text.T.268
                0x0007ffa8        0x8 arch/arm/cpu/arm920t/start.o
 .rel.text.mtd_devices_init
                0x0007ffb0       0x10 arch/arm/cpu/arm920t/start.o
 .rel.text.mtdparts_init
                0x0007ffc0       0xd8 arch/arm/cpu/arm920t/start.o
 .rel.text.do_chpart
                0x00080098       0x38 arch/arm/cpu/arm920t/start.o
 .rel.text.T.267
                0x000800d0       0x20 arch/arm/cpu/arm920t/start.o
 .rel.text.do_mtdparts
                0x000800f0      0x108 arch/arm/cpu/arm920t/start.o
 .rel.text.print_status
                0x000801f8       0x28 arch/arm/cpu/arm920t/start.o
 .rel.text.set_dev
                0x00080220       0x28 arch/arm/cpu/arm920t/start.o
 .rel.text.nand_load_image
                0x00080248       0x40 arch/arm/cpu/arm920t/start.o
 .rel.text.do_nandboot
                0x00080288       0x48 arch/arm/cpu/arm920t/start.o
 .rel.text.nand_print_and_set_info
                0x000802d0       0x68 arch/arm/cpu/arm920t/start.o
 .rel.text.do_nand
                0x00080338      0x1f8 arch/arm/cpu/arm920t/start.o
 .rel.text.do_ping
                0x00080530       0x18 arch/arm/cpu/arm920t/start.o
 .rel.text.netboot_common
                0x00080548       0x98 arch/arm/cpu/arm920t/start.o
 .rel.text.do_test
                0x000805e0       0x70 arch/arm/cpu/arm920t/start.o
 .rel.text.ubi_find_volume
                0x00080650       0x10 arch/arm/cpu/arm920t/start.o
 .rel.text.ubi_volume_continue_write
                0x00080660       0x10 arch/arm/cpu/arm920t/start.o
 .rel.text.ubi_detach
                0x00080670       0x18 arch/arm/cpu/arm920t/start.o
 .rel.text.ubi_volume_read
                0x00080688       0x38 arch/arm/cpu/arm920t/start.o
 .rel.text.ubi_volume_begin_write
                0x000806c0       0x18 arch/arm/cpu/arm920t/start.o
 .rel.text.ubi_part
                0x000806d8       0x70 arch/arm/cpu/arm920t/start.o
 .rel.text.do_ubi
                0x00080748      0x188 arch/arm/cpu/arm920t/start.o
 .rel.text.ubifs_is_mounted
                0x000808d0        0x8 arch/arm/cpu/arm920t/start.o
 .rel.text.do_ubifs_load
                0x000808d8       0x18 arch/arm/cpu/arm920t/start.o
 .rel.text.do_ubifs_ls
                0x000808f0       0x20 arch/arm/cpu/arm920t/start.o
 .rel.text.do_ubifs_mount
                0x00080910       0x10 arch/arm/cpu/arm920t/start.o
 .rel.text.cmd_ubifs_umount
                0x00080920       0x10 arch/arm/cpu/arm920t/start.o
 .rel.text.do_ubifs_umount
                0x00080930       0x10 arch/arm/cpu/arm920t/start.o
 .rel.text.usb_get_class_desc
                0x00080940       0x50 arch/arm/cpu/arm920t/start.o
 .rel.text.usb_display_class_sub
                0x00080990       0xc8 arch/arm/cpu/arm920t/start.o
 .rel.text.do_usb_stop_keyboard
                0x00080a58        0x8 arch/arm/cpu/arm920t/start.o
 .rel.text.usb_display_desc
                0x00080a60       0x38 arch/arm/cpu/arm920t/start.o
 .rel.text.usb_show_tree_graph
                0x00080a98       0x48 arch/arm/cpu/arm920t/start.o
 .rel.text.usb_display_string
                0x00080ae0        0x8 arch/arm/cpu/arm920t/start.o
 .rel.text.usb_display_config
                0x00080ae8       0xa8 arch/arm/cpu/arm920t/start.o
 .rel.text.do_usb
                0x00080b90       0xd8 arch/arm/cpu/arm920t/start.o
 .rel.text.common_diskboot
                0x00000000        0x0 arch/arm/cpu/arm920t/start.o
 .rel.text.do_imgextract
                0x00080c68       0x98 arch/arm/cpu/arm920t/start.o
 .rel.text.do_ymv
                0x00080d00        0x8 arch/arm/cpu/arm920t/start.o
 .rel.text.do_yrm
                0x00080d08        0x8 arch/arm/cpu/arm920t/start.o
 .rel.text.do_yrmdir
                0x00080d10        0x8 arch/arm/cpu/arm920t/start.o
 .rel.text.do_ymkdir
                0x00080d18        0x8 arch/arm/cpu/arm920t/start.o
 .rel.text.do_ywrm
                0x00080d20        0x8 arch/arm/cpu/arm920t/start.o
 .rel.text.do_yrdm
                0x00080d28        0x8 arch/arm/cpu/arm920t/start.o
 .rel.text.do_ywr
                0x00080d30       0x18 arch/arm/cpu/arm920t/start.o
 .rel.text.do_yrd
                0x00080d48       0x18 arch/arm/cpu/arm920t/start.o
 .rel.text.do_yls
                0x00080d60       0x10 arch/arm/cpu/arm920t/start.o
 .rel.text.do_yumount
                0x00080d70       0x10 arch/arm/cpu/arm920t/start.o
 .rel.text.do_ymount
                0x00080d80       0x10 arch/arm/cpu/arm920t/start.o
 .rel.text.do_ydevconfig
                0x00080d90        0x8 arch/arm/cpu/arm920t/start.o
 .rel.text.get_env_id
                0x00080d98        0x8 arch/arm/cpu/arm920t/start.o
 .rel.text.do_env_delete
                0x00080da0       0x10 arch/arm/cpu/arm920t/start.o
 .rel.text.do_env_exists
                0x00080db0        0x8 arch/arm/cpu/arm920t/start.o
 .rel.text._do_env_set
                0x00080db8       0x30 arch/arm/cpu/arm920t/start.o
 .rel.text.setenv
                0x00080de8        0x8 arch/arm/cpu/arm920t/start.o
 .rel.text.env_print
                0x00080df0       0x18 arch/arm/cpu/arm920t/start.o
 .rel.text.do_env_print
                0x00080e08       0x10 arch/arm/cpu/arm920t/start.o
 .rel.text.do_env
                0x00080e18        0x8 arch/arm/cpu/arm920t/start.o
 .rel.text.do_env_import
                0x00080e20       0x58 arch/arm/cpu/arm920t/start.o
 .rel.text.setenv_hex
                0x00080e78        0x8 arch/arm/cpu/arm920t/start.o
 .rel.text.do_env_export
                0x00080e80       0x40 arch/arm/cpu/arm920t/start.o
 .rel.text.do_env_default
                0x00080ec0        0x8 arch/arm/cpu/arm920t/start.o
 .rel.text.do_env_save
                0x00080ec8       0x10 arch/arm/cpu/arm920t/start.o
 .rel.text.getenv_f
                0x00080ed8        0x8 arch/arm/cpu/arm920t/start.o
 .rel.text.getenv
                0x00080ee0        0x8 arch/arm/cpu/arm920t/start.o
 .rel.text.do_env_edit
                0x00080ee8       0x18 arch/arm/cpu/arm920t/start.o
 .rel.rodata.weekdays
                0x00080f00       0x38 arch/arm/cpu/arm920t/start.o
 .rel.rodata.op_table
                0x00080f38       0x68 arch/arm/cpu/arm920t/start.o
 .rel.rodata.op_adv
                0x00080fa0       0x80 arch/arm/cpu/arm920t/start.o
 .rel.rodata.CSWTCH.133
                0x00081020       0x28 arch/arm/cpu/arm920t/start.o
 .rel.u_boot_list_2_cmd_2_go
                0x00081048       0x20 arch/arm/cpu/arm920t/start.o
 .rel.u_boot_list_2_cmd_2_reset
                0x00081068       0x20 arch/arm/cpu/arm920t/start.o
 .rel.u_boot_list_2_cmd_2_iminfo
                0x00081088       0x20 arch/arm/cpu/arm920t/start.o
 .rel.u_boot_list_2_cmd_2_boot
                0x000810a8       0x20 arch/arm/cpu/arm920t/start.o
 .rel.u_boot_list_2_cmd_2_imls
                0x000810c8       0x20 arch/arm/cpu/arm920t/start.o
 .rel.u_boot_list_2_cmd_2_bootd
                0x000810e8       0x20 arch/arm/cpu/arm920t/start.o
 .rel.u_boot_list_2_cmd_2_bootm
                0x00081108       0x20 arch/arm/cpu/arm920t/start.o
 .rel.data.cmd_bootm_sub
                0x00081128       0xd8 arch/arm/cpu/arm920t/start.o
 .rel.u_boot_list_2_cmd_2_question_mark
                0x00081200       0x20 arch/arm/cpu/arm920t/start.o
 .rel.u_boot_list_2_cmd_2_help
                0x00081220       0x20 arch/arm/cpu/arm920t/start.o
 .rel.u_boot_list_2_cmd_2_version
                0x00081240       0x20 arch/arm/cpu/arm920t/start.o
 .rel.u_boot_list_2_cmd_2_source
                0x00081260       0x20 arch/arm/cpu/arm920t/start.o
 .rel.data.loaded_image_info_obj
                0x00081280       0x28 arch/arm/cpu/arm920t/start.o
 .rel.u_boot_list_2_cmd_2_bootefi
                0x000812a8       0x20 arch/arm/cpu/arm920t/start.o
 .rel.data.bootefi_device_obj
                0x000812c8       0x18 arch/arm/cpu/arm920t/start.o
 .rel.data.loaded_image_info
                0x000812e0       0x10 arch/arm/cpu/arm920t/start.o
 .rel.u_boot_list_2_cmd_2_date
                0x000812f0       0x20 arch/arm/cpu/arm920t/start.o
 .rel.u_boot_list_2_cmd_2_echo
                0x00081310       0x20 arch/arm/cpu/arm920t/start.o
 .rel.u_boot_list_2_cmd_2_bootelf
                0x00081330       0x20 arch/arm/cpu/arm920t/start.o
 .rel.u_boot_list_2_cmd_2_bootvx
                0x00081350       0x20 arch/arm/cpu/arm920t/start.o
 .rel.u_boot_list_2_cmd_2_exit
                0x00081370       0x20 arch/arm/cpu/arm920t/start.o
 .rel.u_boot_list_2_cmd_2_fdt
                0x00081390       0x20 arch/arm/cpu/arm920t/start.o
 .rel.u_boot_list_2_cmd_2_protect
                0x000813b0       0x20 arch/arm/cpu/arm920t/start.o
 .rel.u_boot_list_2_cmd_2_erase
                0x000813d0       0x20 arch/arm/cpu/arm920t/start.o
 .rel.u_boot_list_2_cmd_2_flinfo
                0x000813f0       0x20 arch/arm/cpu/arm920t/start.o
 .rel.u_boot_list_2_cmd_2_itest
                0x00081410       0x20 arch/arm/cpu/arm920t/start.o
 .rel.u_boot_list_2_cmd_2_loadb
                0x00081430       0x20 arch/arm/cpu/arm920t/start.o
 .rel.u_boot_list_2_cmd_2_loadx
                0x00081450       0x20 arch/arm/cpu/arm920t/start.o
 .rel.u_boot_list_2_cmd_2_loady
                0x00081470       0x20 arch/arm/cpu/arm920t/start.o
 .rel.u_boot_list_2_cmd_2_loads
                0x00081490       0x20 arch/arm/cpu/arm920t/start.o
 .rel.u_boot_list_2_cmd_2_base
                0x000814b0       0x20 arch/arm/cpu/arm920t/start.o
 .rel.u_boot_list_2_cmd_2_mm
                0x000814d0       0x20 arch/arm/cpu/arm920t/start.o
 .rel.u_boot_list_2_cmd_2_nm
                0x000814f0       0x20 arch/arm/cpu/arm920t/start.o
 .rel.u_boot_list_2_cmd_2_cmp
                0x00081510       0x20 arch/arm/cpu/arm920t/start.o
 .rel.u_boot_list_2_cmd_2_loop
                0x00081530       0x20 arch/arm/cpu/arm920t/start.o
 .rel.u_boot_list_2_cmd_2_cp
                0x00081550       0x20 arch/arm/cpu/arm920t/start.o
 .rel.u_boot_list_2_cmd_2_crc32
                0x00081570       0x20 arch/arm/cpu/arm920t/start.o
 .rel.u_boot_list_2_cmd_2_md
                0x00081590       0x20 arch/arm/cpu/arm920t/start.o
 .rel.u_boot_list_2_cmd_2_mw
                0x000815b0       0x20 arch/arm/cpu/arm920t/start.o
 .rel.u_boot_list_2_cmd_2_mtdparts
                0x000815d0       0x20 arch/arm/cpu/arm920t/start.o
 .rel.u_boot_list_2_cmd_2_chpart
                0x000815f0       0x20 arch/arm/cpu/arm920t/start.o
 .rel.u_boot_list_2_cmd_2_nboot
                0x00081610       0x20 arch/arm/cpu/arm920t/start.o
 .rel.u_boot_list_2_cmd_2_nand
                0x00081630       0x20 arch/arm/cpu/arm920t/start.o
 .rel.u_boot_list_2_cmd_2_ping
                0x00081650       0x20 arch/arm/cpu/arm920t/start.o
 .rel.u_boot_list_2_cmd_2_dhcp
                0x00081670       0x20 arch/arm/cpu/arm920t/start.o
 .rel.u_boot_list_2_cmd_2_bootp
                0x00081690       0x20 arch/arm/cpu/arm920t/start.o
 .rel.u_boot_list_2_cmd_2_tftpboot
                0x000816b0       0x20 arch/arm/cpu/arm920t/start.o
 .rel.u_boot_list_2_cmd_2_nfs
                0x000816d0       0x20 arch/arm/cpu/arm920t/start.o
 .rel.u_boot_list_2_cmd_2_reginfo
                0x000816f0       0x20 arch/arm/cpu/arm920t/start.o
 .rel.u_boot_list_2_cmd_2_test
                0x00081710       0x20 arch/arm/cpu/arm920t/start.o
 .rel.u_boot_list_2_cmd_2_true
                0x00081730       0x18 arch/arm/cpu/arm920t/start.o
 .rel.u_boot_list_2_cmd_2_false
                0x00081748       0x18 arch/arm/cpu/arm920t/start.o
 .rel.u_boot_list_2_cmd_2_ubi
                0x00081760       0x20 arch/arm/cpu/arm920t/start.o
 .rel.u_boot_list_2_cmd_2_ubifsumount
                0x00081780       0x20 arch/arm/cpu/arm920t/start.o
 .rel.u_boot_list_2_cmd_2_ubifsload
                0x000817a0       0x20 arch/arm/cpu/arm920t/start.o
 .rel.u_boot_list_2_cmd_2_ubifsls
                0x000817c0       0x20 arch/arm/cpu/arm920t/start.o
 .rel.u_boot_list_2_cmd_2_ubifsmount
                0x000817e0       0x20 arch/arm/cpu/arm920t/start.o
 .rel.u_boot_list_2_cmd_2_usb
                0x00081800       0x20 arch/arm/cpu/arm920t/start.o
 .rel.u_boot_list_2_cmd_2_imxtract
                0x00081820       0x20 arch/arm/cpu/arm920t/start.o
 .rel.u_boot_list_2_cmd_2_ymv
                0x00081840       0x20 arch/arm/cpu/arm920t/start.o
 .rel.u_boot_list_2_cmd_2_ydevls
                0x00081860       0x20 arch/arm/cpu/arm920t/start.o
 .rel.u_boot_list_2_cmd_2_ydevconfig
                0x00081880       0x20 arch/arm/cpu/arm920t/start.o
 .rel.u_boot_list_2_cmd_2_yrd
                0x000818a0       0x20 arch/arm/cpu/arm920t/start.o
 .rel.u_boot_list_2_cmd_2_yrdm
                0x000818c0       0x20 arch/arm/cpu/arm920t/start.o
 .rel.u_boot_list_2_cmd_2_ywr
                0x000818e0       0x20 arch/arm/cpu/arm920t/start.o
 .rel.u_boot_list_2_cmd_2_ytrace
                0x00081900       0x20 arch/arm/cpu/arm920t/start.o
 .rel.u_boot_list_2_cmd_2_yumount
                0x00081920       0x20 arch/arm/cpu/arm920t/start.o
 .rel.u_boot_list_2_cmd_2_ymount
                0x00081940       0x20 arch/arm/cpu/arm920t/start.o
 .rel.u_boot_list_2_cmd_2_yrm
                0x00081960       0x20 arch/arm/cpu/arm920t/start.o
 .rel.u_boot_list_2_cmd_2_ywrm
                0x00081980       0x20 arch/arm/cpu/arm920t/start.o
 .rel.u_boot_list_2_cmd_2_yrmdir
                0x000819a0       0x20 arch/arm/cpu/arm920t/start.o
 .rel.u_boot_list_2_cmd_2_yls
                0x000819c0       0x20 arch/arm/cpu/arm920t/start.o
 .rel.u_boot_list_2_cmd_2_ymkdir
                0x000819e0       0x20 arch/arm/cpu/arm920t/start.o
 .rel.u_boot_list_2_cmd_2_setenv
                0x00081a00       0x20 arch/arm/cpu/arm920t/start.o
 .rel.u_boot_list_2_cmd_2_env
                0x00081a20       0x20 arch/arm/cpu/arm920t/start.o
 .rel.u_boot_list_2_cmd_2_run
                0x00081a40       0x20 arch/arm/cpu/arm920t/start.o
 .rel.u_boot_list_2_cmd_2_saveenv
                0x00081a60       0x20 arch/arm/cpu/arm920t/start.o
 .rel.data.cmd_env_sub
                0x00081a80      0x140 arch/arm/cpu/arm920t/start.o
 .rel.u_boot_list_2_cmd_2_editenv
                0x00081bc0       0x20 arch/arm/cpu/arm920t/start.o
 .rel.u_boot_list_2_cmd_2_printenv
                0x00081be0       0x20 arch/arm/cpu/arm920t/start.o
 .rel.text.main_loop
                0x00081c00        0x8 arch/arm/cpu/arm920t/start.o
 .rel.text.jumptable_init
                0x00081c08       0xb8 arch/arm/cpu/arm920t/start.o
 .rel.text.hash_command
                0x00081cc0        0x8 arch/arm/cpu/arm920t/start.o
 .rel.text.hash_progressive_lookup_algo
                0x00000000        0x0 arch/arm/cpu/arm920t/start.o
 .rel.text.hash_lookup_algo
                0x00000000        0x0 arch/arm/cpu/arm920t/start.o
 .rel.text.do_showvar
                0x00081cc8       0x20 arch/arm/cpu/arm920t/start.o
 .rel.text.u_boot_hush_start
                0x00081ce8       0x18 arch/arm/cpu/arm920t/start.o
 .rel.text.xmalloc
                0x00081d00        0x8 arch/arm/cpu/arm920t/start.o
 .rel.text.file_get
                0x00081d08       0x38 arch/arm/cpu/arm920t/start.o
 .rel.text.unset_local_var
                0x00000000        0x0 arch/arm/cpu/arm920t/start.o
 .rel.text.xrealloc
                0x00081d40        0x8 arch/arm/cpu/arm920t/start.o
 .rel.text.done_word
                0x00081d48       0x18 arch/arm/cpu/arm920t/start.o
 .rel.text.b_addqchr
                0x00081d60        0x8 arch/arm/cpu/arm920t/start.o
 .rel.text.get_local_var
                0x00081d68       0x20 arch/arm/cpu/arm920t/start.o
 .rel.text.set_local_var
                0x00081d88       0x20 arch/arm/cpu/arm920t/start.o
 .rel.text.insert_var_value_sub
                0x00081da8        0x8 arch/arm/cpu/arm920t/start.o
 .rel.text.run_list_real
                0x00081db0       0x50 arch/arm/cpu/arm920t/start.o
 .rel.text.parse_stream_outer
                0x00081e00       0x70 arch/arm/cpu/arm920t/start.o
 .rel.text.parse_file_outer
                0x00081e70       0x10 arch/arm/cpu/arm920t/start.o
 .rel.text.parse_string_outer
                0x00081e80       0x18 arch/arm/cpu/arm920t/start.o
 .rel.text.autoboot_command
                0x00081e98       0x20 arch/arm/cpu/arm920t/start.o
 .rel.text.bootdelay_process
                0x00081eb8       0x18 arch/arm/cpu/arm920t/start.o
 .rel.text.bootretry_dont_retry
                0x00000000        0x0 arch/arm/cpu/arm920t/start.o
 .rel.text.bootretry_tstc_timeout
                0x00081ed0       0x10 arch/arm/cpu/arm920t/start.o
 .rel.text.bootretry_reset_cmd_timeout
                0x00081ee0       0x10 arch/arm/cpu/arm920t/start.o
 .rel.text.bootretry_init_cmd_timeout
                0x00081ef0       0x10 arch/arm/cpu/arm920t/start.o
 .rel.text.setup_mon_len
                0x00081f00       0x10 arch/arm/cpu/arm920t/start.o
 .rel.text.board_init_f
                0x00081f10        0x8 arch/arm/cpu/arm920t/start.o
 .rel.text.show_dram_config
                0x00081f18        0x8 arch/arm/cpu/arm920t/start.o
 .rel.text.announce_dram_init
                0x00081f20        0x8 arch/arm/cpu/arm920t/start.o
 .rel.text.init_baud_rate
                0x00081f28        0x8 arch/arm/cpu/arm920t/start.o
 .rel.text.initr_net
                0x00081f30        0x8 arch/arm/cpu/arm920t/start.o
 .rel.text.initr_ethaddr
                0x00081f38        0x8 arch/arm/cpu/arm920t/start.o
 .rel.text.initr_env
                0x00081f40       0x10 arch/arm/cpu/arm920t/start.o
 .rel.text.initr_nand
                0x00081f50        0x8 arch/arm/cpu/arm920t/start.o
 .rel.text.initr_flash
                0x00081f58       0x20 arch/arm/cpu/arm920t/start.o
 .rel.text.initr_reloc_global_data
                0x00081f78       0x18 arch/arm/cpu/arm920t/start.o
 .rel.text.board_init_r
                0x00081f90        0x8 arch/arm/cpu/arm920t/start.o
 .rel.text.bootm_decomp_image
                0x00081f98       0x70 arch/arm/cpu/arm920t/start.o
 .rel.text.bootm_find_images
                0x00082008       0x18 arch/arm/cpu/arm920t/start.o
 .rel.text.do_bootm_states
                0x00082020       0xb0 arch/arm/cpu/arm920t/start.o
 .rel.text.bootm_os_get_boot_func
                0x000820d0        0x8 arch/arm/cpu/arm920t/start.o
 .rel.text.do_bootm_plan9
                0x000820d8       0x18 arch/arm/cpu/arm920t/start.o
 .rel.text.do_bootm_rtems
                0x000820f0        0x8 arch/arm/cpu/arm920t/start.o
 .rel.text.do_bootm_standalone
                0x000820f8       0x18 arch/arm/cpu/arm920t/start.o
 .rel.text.do_bootm_qnxelf
                0x00082110        0x8 arch/arm/cpu/arm920t/start.o
 .rel.text.do_bootm_netbsd
                0x00082118       0x18 arch/arm/cpu/arm920t/start.o
 .rel.text.do_bootvx_fdt
                0x00082130       0x38 arch/arm/cpu/arm920t/start.o
 .rel.text.regex_callback
                0x00082168       0x10 arch/arm/cpu/arm920t/start.o
 .rel.text.env_attr_lookup
                0x00082178        0x8 arch/arm/cpu/arm920t/start.o
 .rel.text.on_callbacks
                0x00082180       0x20 arch/arm/cpu/arm920t/start.o
 .rel.text.find_env_callback
                0x000821a0       0x10 arch/arm/cpu/arm920t/start.o
 .rel.text.set_callback
                0x000821b0        0x8 arch/arm/cpu/arm920t/start.o
 .rel.text.env_callback_init
                0x000821b8       0x20 arch/arm/cpu/arm920t/start.o
 .rel.text.skip_num
                0x000821d8        0x8 arch/arm/cpu/arm920t/start.o
 .rel.text.on_flags
                0x000821e0       0x20 arch/arm/cpu/arm920t/start.o
 .rel.text.env_flags_parse_varaccess_from_binflags
                0x00000000        0x0 arch/arm/cpu/arm920t/start.o
 .rel.text.env_flags_validate
                0x00082200       0x68 arch/arm/cpu/arm920t/start.o
 .rel.text.env_flags_parse_varaccess
                0x00082268       0x10 arch/arm/cpu/arm920t/start.o
 .rel.text.env_flags_parse_vartype
                0x00082278       0x10 arch/arm/cpu/arm920t/start.o
 .rel.text.env_parse_flags_to_bin
                0x00082288        0x8 arch/arm/cpu/arm920t/start.o
 .rel.text.set_flags
                0x00082290        0x8 arch/arm/cpu/arm920t/start.o
 .rel.text.env_flags_init
                0x00082298       0x28 arch/arm/cpu/arm920t/start.o
 .rel.text.saveenv
                0x000822c0       0x18 arch/arm/cpu/arm920t/start.o
 .rel.text.env_init
                0x000822d8       0x10 arch/arm/cpu/arm920t/start.o
 .rel.text.fdt_fixup_display
                0x00000000        0x0 arch/arm/cpu/arm920t/start.o
 .rel.text.fdt_set_phandle
                0x00000000        0x0 arch/arm/cpu/arm920t/start.o
 .rel.text.of_bus_default_count_cells
                0x000822e8        0x8 arch/arm/cpu/arm920t/start.o
 .rel.text.fdt_setup_simplefb_node
                0x00000000        0x0 arch/arm/cpu/arm920t/start.o
 .rel.text.fdt_set_node_status
                0x00000000        0x0 arch/arm/cpu/arm920t/start.o
 .rel.text.fdt_create_phandle
                0x00000000        0x0 arch/arm/cpu/arm920t/start.o
 .rel.text.fdt_del_node_and_alias
                0x00000000        0x0 arch/arm/cpu/arm920t/start.o
 .rel.text.fdt_add_edid
                0x00000000        0x0 arch/arm/cpu/arm920t/start.o
 .rel.text.fdt_root
                0x000822f0       0x20 arch/arm/cpu/arm920t/start.o
 .rel.text.do_fixup_by_path
                0x00082310        0x8 arch/arm/cpu/arm920t/start.o
 .rel.text.fdt_fixup_ethernet
                0x00082318       0x30 arch/arm/cpu/arm920t/start.o
 .rel.text.fdt_find_or_add_subnode
                0x00082348       0x10 arch/arm/cpu/arm920t/start.o
 .rel.text.fdt_fixup_memory_banks
                0x00082358       0x38 arch/arm/cpu/arm920t/start.o
 .rel.text.fdt_chosen
                0x00082390       0x20 arch/arm/cpu/arm920t/start.o
 .rel.text.fdt_initrd
                0x000823b0       0x30 arch/arm/cpu/arm920t/start.o
 .rel.text.fdt_translate_address
                0x000823e0       0x20 arch/arm/cpu/arm920t/start.o
 .rel.text.fdt_read_range
                0x00000000        0x0 arch/arm/cpu/arm920t/start.o
 .rel.text.fdt_get_base_address
                0x00000000        0x0 arch/arm/cpu/arm920t/start.o
 .rel.text.fdt_verify_alias_address
                0x00000000        0x0 arch/arm/cpu/arm920t/start.o
 .rel.text.fdt_node_offset_by_compat_reg
                0x00000000        0x0 arch/arm/cpu/arm920t/start.o
 .rel.text.usb_disable_asynch
                0x00000000        0x0 arch/arm/cpu/arm920t/start.o
 .rel.text.usb_get_dev_index
                0x00082400        0x8 arch/arm/cpu/arm920t/start.o
 .rel.text.usb_find_usb2_hub_address_port
                0x00000000        0x0 arch/arm/cpu/arm920t/start.o
 .rel.text.usb_alloc_new_device
                0x00082408       0x18 arch/arm/cpu/arm920t/start.o
 .rel.text.usb_free_device
                0x00082420       0x10 arch/arm/cpu/arm920t/start.o
 .rel.text.usb_control_msg
                0x00082430        0x8 arch/arm/cpu/arm920t/start.o
 .rel.text.get_descriptor_len
                0x00082438       0x10 arch/arm/cpu/arm920t/start.o
 .rel.text.usb_get_configuration_len
                0x00082448       0x10 arch/arm/cpu/arm920t/start.o
 .rel.text.usb_string_sub
                0x00082458        0x8 arch/arm/cpu/arm920t/start.o
 .rel.text.usb_set_interface
                0x00000000        0x0 arch/arm/cpu/arm920t/start.o
 .rel.text.usb_detect_change
                0x00000000        0x0 arch/arm/cpu/arm920t/start.o
 .rel.text.usb_stop
                0x00082460       0x18 arch/arm/cpu/arm920t/start.o
 .rel.text.usb_select_config
                0x00082478       0x70 arch/arm/cpu/arm920t/start.o
 .rel.text.usb_setup_device
                0x000824e8       0x18 arch/arm/cpu/arm920t/start.o
 .rel.text.usb_init
                0x00082500       0x58 arch/arm/cpu/arm920t/start.o
 .rel.text.usb_hub_reset
                0x00082558       0x10 arch/arm/cpu/arm920t/start.o
 .rel.text.usb_hub_port_connect_change
                0x00082568       0x10 arch/arm/cpu/arm920t/start.o
 .rel.text.usb_hub_configure
                0x00082578       0x40 arch/arm/cpu/arm920t/start.o
 .rel.text.addr2info
                0x000825b8       0x10 arch/arm/cpu/arm920t/start.o
 .rel.text.flash_perror
                0x000825c8       0x58 arch/arm/cpu/arm920t/start.o
 .rel.text.flash_write
                0x00082620       0x10 arch/arm/cpu/arm920t/start.o
 .rel.text.lcd_set_flush_dcache
                0x00000000        0x0 arch/arm/cpu/arm920t/start.o
 .rel.text.lcd_get_size
                0x00082630        0x8 arch/arm/cpu/arm920t/start.o
 .rel.text.lcd_getfgcolor
                0x00082638        0x8 arch/arm/cpu/arm920t/start.o
 .rel.text.lcd_getbgcolor
                0x00082640        0x8 arch/arm/cpu/arm920t/start.o
 .rel.text.lcd_get_pixel_width
                0x00000000        0x0 arch/arm/cpu/arm920t/start.o
 .rel.text.lcd_get_pixel_height
                0x00000000        0x0 arch/arm/cpu/arm920t/start.o
 .rel.text.lcd_sync
                0x00082648       0x10 arch/arm/cpu/arm920t/start.o
 .rel.text.lcd_clear
                0x00082658       0x38 arch/arm/cpu/arm920t/start.o
 .rel.text.drv_lcd_init
                0x00082690       0x30 arch/arm/cpu/arm920t/start.o
 .rel.text.lcd_set_col
                0x000826c0        0x8 arch/arm/cpu/arm920t/start.o
 .rel.text.lcd_set_row
                0x000826c8        0x8 arch/arm/cpu/arm920t/start.o
 .rel.text.lcd_position_cursor
                0x00000000        0x0 arch/arm/cpu/arm920t/start.o
 .rel.text.lcd_get_screen_rows
                0x00000000        0x0 arch/arm/cpu/arm920t/start.o
 .rel.text.lcd_get_screen_columns
                0x00000000        0x0 arch/arm/cpu/arm920t/start.o
 .rel.text.do_lcd_setcursor
                0x000826d0        0x8 arch/arm/cpu/arm920t/start.o
 .rel.text.lcd_putc
                0x000826d8       0x40 arch/arm/cpu/arm920t/start.o
 .rel.text.lcd_puts
                0x00082718        0x8 arch/arm/cpu/arm920t/start.o
 .rel.text.lcd_init_console
                0x00082720       0x20 arch/arm/cpu/arm920t/start.o
 .rel.text.lcd_putc_xy0
                0x00082740        0x8 arch/arm/cpu/arm920t/start.o
 .rel.text.usb_kbd_translate
                0x00082748       0x20 arch/arm/cpu/arm920t/start.o
 .rel.text.usb_kbd_testc
                0x00082768       0x18 arch/arm/cpu/arm920t/start.o
 .rel.text.usb_kbd_getc
                0x00082780        0x8 arch/arm/cpu/arm920t/start.o
 .rel.text.drv_usb_kbd_init
                0x00082788       0x38 arch/arm/cpu/arm920t/start.o
 .rel.text.env_get_char_memory
                0x00000000        0x0 arch/arm/cpu/arm920t/start.o
 .rel.text.env_get_char
                0x000827c0        0x8 arch/arm/cpu/arm920t/start.o
 .rel.text.env_get_addr
                0x00000000        0x0 arch/arm/cpu/arm920t/start.o
 .rel.text.env_export
                0x000827c8       0x28 arch/arm/cpu/arm920t/start.o
 .rel.text.set_default_vars
                0x000827f0       0x10 arch/arm/cpu/arm920t/start.o
 .rel.text.set_default_env
                0x00082800       0x40 arch/arm/cpu/arm920t/start.o
 .rel.text.env_relocate
                0x00082840        0x8 arch/arm/cpu/arm920t/start.o
 .rel.text.env_import
                0x00082848       0x38 arch/arm/cpu/arm920t/start.o
 .rel.text.console_setfile
                0x00082880       0x30 arch/arm/cpu/arm920t/start.o
 .rel.text.fgetc
                0x000828b0        0x8 arch/arm/cpu/arm920t/start.o
 .rel.text.ftstc
                0x000828b8        0x8 arch/arm/cpu/arm920t/start.o
 .rel.text.fputc
                0x000828c0        0x8 arch/arm/cpu/arm920t/start.o
 .rel.text.fputs
                0x000828c8        0x8 arch/arm/cpu/arm920t/start.o
 .rel.text.disable_ctrlc
                0x00000000        0x0 arch/arm/cpu/arm920t/start.o
 .rel.text.had_ctrlc
                0x000828d0        0x8 arch/arm/cpu/arm920t/start.o
 .rel.text.clear_ctrlc
                0x000828d8        0x8 arch/arm/cpu/arm920t/start.o
 .rel.text.on_console
                0x000828e0       0x20 arch/arm/cpu/arm920t/start.o
 .rel.text.stdio_print_current_devices
                0x00082900       0x40 arch/arm/cpu/arm920t/start.o
 .rel.text.console_init_r
                0x00082940       0x10 arch/arm/cpu/arm920t/start.o
 .rel.text.confirm_yesno
                0x00082950       0x20 arch/arm/cpu/arm920t/start.o
 .rel.text.ctrlc
                0x00082970       0x10 arch/arm/cpu/arm920t/start.o
 .rel.text.mallopt
                0x00000000        0x0 arch/arm/cpu/arm920t/start.o
 .rel.text.mem_malloc_init
                0x00082980       0x18 arch/arm/cpu/arm920t/start.o
 .rel.text.sbrk
                0x00082998       0x18 arch/arm/cpu/arm920t/start.o
 .rel.text.malloc_trim
                0x000829b0       0x18 arch/arm/cpu/arm920t/start.o
 .rel.text.free
                0x000829c8       0x20 arch/arm/cpu/arm920t/start.o
 .rel.text.malloc
                0x000829e8       0x48 arch/arm/cpu/arm920t/start.o
 .rel.text.calloc
                0x00082a30        0x8 arch/arm/cpu/arm920t/start.o
 .rel.text.realloc
                0x00082a38        0x8 arch/arm/cpu/arm920t/start.o
 .rel.text.genimg_get_cat_count
                0x00000000        0x0 arch/arm/cpu/arm920t/start.o
 .rel.text.genimg_get_cat_desc
                0x00000000        0x0 arch/arm/cpu/arm920t/start.o
 .rel.text.genimg_get_os_name
                0x00082a40       0x10 arch/arm/cpu/arm920t/start.o
 .rel.text.genimg_get_arch_name
                0x00000000        0x0 arch/arm/cpu/arm920t/start.o
 .rel.text.genimg_get_type_name
                0x00082a50       0x10 arch/arm/cpu/arm920t/start.o
 .rel.text.genimg_get_type_short_name
                0x00000000        0x0 arch/arm/cpu/arm920t/start.o
 .rel.text.genimg_get_comp_name
                0x00082a60       0x10 arch/arm/cpu/arm920t/start.o
 .rel.text.genimg_get_comp_short_name
                0x00000000        0x0 arch/arm/cpu/arm920t/start.o
 .rel.text.genimg_get_os_short_name
                0x00000000        0x0 arch/arm/cpu/arm920t/start.o
 .rel.text.genimg_get_arch_short_name
                0x00000000        0x0 arch/arm/cpu/arm920t/start.o
 .rel.text.on_loadaddr
                0x00082a70        0x8 arch/arm/cpu/arm920t/start.o
 .rel.text.genimg_get_kernel_addr_fit
                0x00082a78        0x8 arch/arm/cpu/arm920t/start.o
 .rel.text.getenv_bootm_low
                0x00082a80        0x8 arch/arm/cpu/arm920t/start.o
 .rel.text.genimg_get_comp_id
                0x00000000        0x0 arch/arm/cpu/arm920t/start.o
 .rel.text.genimg_get_type_id
                0x00000000        0x0 arch/arm/cpu/arm920t/start.o
 .rel.text.genimg_get_arch_id
                0x00000000        0x0 arch/arm/cpu/arm920t/start.o
 .rel.text.genimg_get_os_id
                0x00000000        0x0 arch/arm/cpu/arm920t/start.o
 .rel.text.unknown_msg
                0x00000000        0x0 arch/arm/cpu/arm920t/start.o
 .rel.text.genimg_get_cat_short_name
                0x00000000        0x0 arch/arm/cpu/arm920t/start.o
 .rel.text.genimg_get_cat_name
                0x00000000        0x0 arch/arm/cpu/arm920t/start.o
 .rel.text.genimg_print_time
                0x00082a88        0x8 arch/arm/cpu/arm920t/start.o
 .rel.text.genimg_print_size
                0x00082a90       0x10 arch/arm/cpu/arm920t/start.o
 .rel.text.image_print_contents
                0x00082aa0       0x98 arch/arm/cpu/arm920t/start.o
 .rel.text.getenv_bootm_size
                0x00082b38       0x10 arch/arm/cpu/arm920t/start.o
 .rel.text.getenv_bootm_mapsize
                0x00082b48        0x8 arch/arm/cpu/arm920t/start.o
 .rel.text.boot_ramdisk_high
                0x00082b50       0x20 arch/arm/cpu/arm920t/start.o
 .rel.text.boot_get_ramdisk
                0x00082b70       0x60 arch/arm/cpu/arm920t/start.o
 .rel.text.image_setup_libfdt
                0x00082bd0       0x20 arch/arm/cpu/arm920t/start.o
 .rel.text.fdt_error
                0x00082bf0       0x10 arch/arm/cpu/arm920t/start.o
 .rel.text.boot_get_fdt
                0x00082c00       0x80 arch/arm/cpu/arm920t/start.o
 .rel.text.boot_relocate_fdt
                0x00082c80       0x40 arch/arm/cpu/arm920t/start.o
 .rel.text.boot_fdt_add_mem_rsv_regions
                0x00082cc0        0x8 arch/arm/cpu/arm920t/start.o
 .rel.text.stdio_get_list
                0x00082cc8        0x8 arch/arm/cpu/arm920t/start.o
 .rel.text.stdio_init_tables
                0x00082cd0        0x8 arch/arm/cpu/arm920t/start.o
 .rel.text.stdio_register_dev
                0x00082cd8        0x8 arch/arm/cpu/arm920t/start.o
 .rel.text.stdio_add_devices
                0x00082ce0       0x28 arch/arm/cpu/arm920t/start.o
 .rel.text.stdio_init
                0x00000000        0x0 arch/arm/cpu/arm920t/start.o
 .rel.text.stdio_get_by_name
                0x00082d08        0x8 arch/arm/cpu/arm920t/start.o
 .rel.text.cli_simple_loop
                0x00000000        0x0 arch/arm/cpu/arm920t/start.o
 .rel.text.cli_simple_parse_line
                0x00000000        0x0 arch/arm/cpu/arm920t/start.o
 .rel.text.cli_simple_run_command
                0x00000000        0x0 arch/arm/cpu/arm920t/start.o
 .rel.text.do_run
                0x00082d10        0x8 arch/arm/cpu/arm920t/start.o
 .rel.text.delete_char
                0x00082d18       0x10 arch/arm/cpu/arm920t/start.o
 .rel.text.cread_add_char
                0x00082d28        0x8 arch/arm/cpu/arm920t/start.o
 .rel.text.cli_readline_into_buffer
                0x00082d30      0x168 arch/arm/cpu/arm920t/start.o
 .rel.text.cli_readline
                0x00082e98        0x8 arch/arm/cpu/arm920t/start.o
 .rel.text.cmd_process_error
                0x00082ea0        0x8 arch/arm/cpu/arm920t/start.o
 .rel.text.cmd_get_data_size
                0x00082ea8        0x8 arch/arm/cpu/arm920t/start.o
 .rel.text.cmd_usage
                0x00082eb0       0x18 arch/arm/cpu/arm920t/start.o
 .rel.text.find_cmd
                0x00082ec8       0x10 arch/arm/cpu/arm920t/start.o
 .rel.text.cmd_process
                0x00082ed8       0x18 arch/arm/cpu/arm920t/start.o
 .rel.text._do_help
                0x00082ef0       0x10 arch/arm/cpu/arm920t/start.o
 .rel.text.srec_decode
                0x00082f00       0x50 arch/arm/cpu/arm920t/start.o
 .rel.text.xyzModem_error
                0x00082f50       0x10 arch/arm/cpu/arm920t/start.o
 .rel.text.xyzModem_stream_terminate
                0x00082f60        0x8 arch/arm/cpu/arm920t/start.o
 .rel.text.xyzModem_stream_close
                0x00082f68       0x20 arch/arm/cpu/arm920t/start.o
 .rel.text.xyzModem_get_hdr
                0x00082f88       0x28 arch/arm/cpu/arm920t/start.o
 .rel.text.xyzModem_stream_read
                0x00082fb0        0x8 arch/arm/cpu/arm920t/start.o
 .rel.text.xyzModem_stream_open
                0x00082fb8       0x10 arch/arm/cpu/arm920t/start.o
 .rel.rodata.boot_os
                0x00082fc8       0x38 arch/arm/cpu/arm920t/start.o
 .rel.rodata.uimage_comp
                0x00083000       0x70 arch/arm/cpu/arm920t/start.o
 .rel.rodata.uimage_os
                0x00083070       0xa0 arch/arm/cpu/arm920t/start.o
 .rel.rodata.table_info
                0x00000000        0x0 arch/arm/cpu/arm920t/start.o
 .rel.rodata.uimage_type
                0x00083110      0x1d0 arch/arm/cpu/arm920t/start.o
 .rel.rodata.uimage_arch
                0x000832e0      0x1a0 arch/arm/cpu/arm920t/start.o
 .rel.rodata.CSWTCH.102
                0x00083480       0x40 arch/arm/cpu/arm920t/start.o
 .rel.data.hash_algo
                0x00000000        0x0 arch/arm/cpu/arm920t/start.o
 .rel.data.reserved_list
                0x000834c0       0x58 arch/arm/cpu/arm920t/start.o
 .rel.u_boot_list_2_cmd_2_showvar
                0x00083518       0x20 arch/arm/cpu/arm920t/start.o
 .rel.data.init_sequence_f
                0x00083538      0x120 arch/arm/cpu/arm920t/start.o
 .rel.data.init_sequence_r
                0x00083658       0xe8 arch/arm/cpu/arm920t/start.o
 .rel.u_boot_list_2_env_clbk_2_callbacks
                0x00083740       0x10 arch/arm/cpu/arm920t/start.o
 .rel.u_boot_list_2_env_clbk_2_flags
                0x00083750       0x10 arch/arm/cpu/arm920t/start.o
 .rel.data.env_name_spec
                0x00083760        0x8 arch/arm/cpu/arm920t/start.o
 .rel.data.of_busses
                0x00083768       0x28 arch/arm/cpu/arm920t/start.o
 .rel.data.usb_scan_list
                0x00083790       0x10 arch/arm/cpu/arm920t/start.o
 .rel.u_boot_list_2_cmd_2_cls
                0x000837a0       0x20 arch/arm/cpu/arm920t/start.o
 .rel.u_boot_list_2_cmd_2_lcdputs
                0x000837c0       0x20 arch/arm/cpu/arm920t/start.o
 .rel.u_boot_list_2_cmd_2_setcurs
                0x000837e0       0x20 arch/arm/cpu/arm920t/start.o
 .rel.data.env_htab
                0x00083800        0x8 arch/arm/cpu/arm920t/start.o
 .rel.u_boot_list_2_env_clbk_2_console
                0x00083808       0x10 arch/arm/cpu/arm920t/start.o
 .rel.data.av_  0x00083818      0x800 arch/arm/cpu/arm920t/start.o
 .rel.u_boot_list_2_env_clbk_2_loadaddr
                0x00084018       0x10 arch/arm/cpu/arm920t/start.o
 .rel.data.stdio_names
                0x00084028       0x18 arch/arm/cpu/arm920t/start.o
 .rel.text.part_init
                0x00084040       0x10 arch/arm/cpu/arm920t/start.o
 .rel.text.part_get_info
                0x00084050       0x10 arch/arm/cpu/arm920t/start.o
 .rel.text.blk_get_device_by_str
                0x00084060       0x18 arch/arm/cpu/arm920t/start.o
 .rel.text.blk_get_device_part_str
                0x00084078       0x78 arch/arm/cpu/arm920t/start.o
 .rel.text.part_print
                0x00000000        0x0 arch/arm/cpu/arm920t/start.o
 .rel.text.dev_print
                0x00000000        0x0 arch/arm/cpu/arm920t/start.o
 .rel.text.test_block_type
                0x000840f0       0x10 arch/arm/cpu/arm920t/start.o
 .rel.text.print_partition_extended
                0x00084100       0x30 arch/arm/cpu/arm920t/start.o
 .rel.text.part_print_dos
                0x00084130        0x8 arch/arm/cpu/arm920t/start.o
 .rel.text.part_get_info_extended
                0x00084138       0x80 arch/arm/cpu/arm920t/start.o
 .rel.u_boot_list_2_part_driver_2_dos
                0x000841b8       0x20 arch/arm/cpu/arm920t/start.o
 .rel.text.dev_get_parent_priv
                0x00000000        0x0 arch/arm/cpu/arm920t/start.o
 .rel.text.dev_get_uclass_priv
                0x00000000        0x0 arch/arm/cpu/arm920t/start.o
 .rel.text.dev_get_priv
                0x00000000        0x0 arch/arm/cpu/arm920t/start.o
 .rel.text.dev_get_uclass_platdata
                0x00000000        0x0 arch/arm/cpu/arm920t/start.o
 .rel.text.dev_get_parent_platdata
                0x00000000        0x0 arch/arm/cpu/arm920t/start.o
 .rel.text.dev_get_platdata
                0x00000000        0x0 arch/arm/cpu/arm920t/start.o
 .rel.text.lists_uclass_lookup
                0x000841d8       0x10 arch/arm/cpu/arm920t/start.o
 .rel.text.lists_bind_drivers
                0x000841e8       0x18 arch/arm/cpu/arm920t/start.o
 .rel.text.lists_driver_lookup_name
                0x00084200       0x10 arch/arm/cpu/arm920t/start.o
 .rel.text.dm_scan_platdata
                0x00084210        0x8 arch/arm/cpu/arm920t/start.o
 .rel.text.dm_root
                0x00084218        0x8 arch/arm/cpu/arm920t/start.o
 .rel.text.dm_init
                0x00084220       0x10 arch/arm/cpu/arm920t/start.o
 .rel.text.uclass_resolve_seq
                0x00084230        0x8 arch/arm/cpu/arm920t/start.o
 .rel.text.dm_dump_uclass
                0x00084238       0x20 arch/arm/cpu/arm920t/start.o
 .rel.text.show_devices
                0x00084258       0x30 arch/arm/cpu/arm920t/start.o
 .rel.text.dm_dump_all
                0x00084288       0x10 arch/arm/cpu/arm920t/start.o
 .rel.text.blk_driver_lookup_type
                0x00084298       0x10 arch/arm/cpu/arm920t/start.o
 .rel.text.blk_get_devnum_by_typename
                0x000842a8       0x10 arch/arm/cpu/arm920t/start.o
 .rel.text.blk_show_device
                0x00000000        0x0 arch/arm/cpu/arm920t/start.o
 .rel.text.blk_print_device_num
                0x00000000        0x0 arch/arm/cpu/arm920t/start.o
 .rel.text.blk_list_devices
                0x00000000        0x0 arch/arm/cpu/arm920t/start.o
 .rel.text.status_led_init
                0x000842b8       0x10 arch/arm/cpu/arm920t/start.o
 .rel.text.status_led_set
                0x000842c8       0x10 arch/arm/cpu/arm920t/start.o
 .rel.text.status_led_tick
                0x00000000        0x0 arch/arm/cpu/arm920t/start.o
 .rel.text.rtc_calc_weekday
                0x000842d8        0x8 arch/arm/cpu/arm920t/start.o
 .rel.text.rtc_to_tm
                0x000842e0        0x8 arch/arm/cpu/arm920t/start.o
 .rel.text.input_add_tables
                0x00000000        0x0 arch/arm/cpu/arm920t/start.o
 .rel.text.input_stdio_register
                0x00000000        0x0 arch/arm/cpu/arm920t/start.o
 .rel.text._input_send_keycodes
                0x00000000        0x0 arch/arm/cpu/arm920t/start.o
 .rel.rodata.root_info
                0x000842e8        0x8 arch/arm/cpu/arm920t/start.o
 .rel.rodata.kbd_to_ansi364
                0x00000000        0x0 arch/arm/cpu/arm920t/start.o
 .rel.u_boot_list_2_driver_2_root_driver
                0x000842f0        0x8 arch/arm/cpu/arm920t/start.o
 .rel.u_boot_list_2_uclass_2_root
                0x000842f8        0x8 arch/arm/cpu/arm920t/start.o
 .rel.data.kbd_entry
                0x00000000        0x0 arch/arm/cpu/arm920t/start.o
 .rel.text.__mtd_next_device
                0x00000000        0x0 arch/arm/cpu/arm920t/start.o
 .rel.text.get_mtd_device
                0x00084300        0x8 arch/arm/cpu/arm920t/start.o
 .rel.text.__put_mtd_device
                0x00084308       0x10 arch/arm/cpu/arm920t/start.o
 .rel.text.del_mtd_device
                0x00084318       0x10 arch/arm/cpu/arm920t/start.o
 .rel.text.add_mtd_device
                0x00084328       0x20 arch/arm/cpu/arm920t/start.o
 .rel.text.get_mtd_device_nm
                0x00084348        0x8 arch/arm/cpu/arm920t/start.o
 .rel.text.mtd_arg_off
                0x00084350       0x10 arch/arm/cpu/arm920t/start.o
 .rel.text.mtd_arg_off_size
                0x00084360       0x28 arch/arm/cpu/arm920t/start.o
 .rel.text.mtd_erase_callback
                0x00084388        0x8 arch/arm/cpu/arm920t/start.o
 .rel.text.mtd_is_partition
                0x00000000        0x0 arch/arm/cpu/arm920t/start.o
 .rel.text.mtd_get_device_size
                0x00084390        0x8 arch/arm/cpu/arm920t/start.o
 .rel.text.del_mtd_partitions
                0x00084398        0x8 arch/arm/cpu/arm920t/start.o
 .rel.text.add_mtd_partitions
                0x000843a0       0xf0 arch/arm/cpu/arm920t/start.o
 .rel.text.cfi_flash_bank_addr
                0x00000000        0x0 arch/arm/cpu/arm920t/start.o
 .rel.text.flash_get_info
                0x00000000        0x0 arch/arm/cpu/arm920t/start.o
 .rel.text.flash_write_cmd
                0x00084490       0x40 arch/arm/cpu/arm920t/start.o
 .rel.text.flash_isset
                0x000844d0       0x40 arch/arm/cpu/arm920t/start.o
 .rel.text.flash_add_byte
                0x00084510       0x40 arch/arm/cpu/arm920t/start.o
 .rel.text.cfi_flash_probe
                0x00084550       0x18 arch/arm/cpu/arm920t/start.o
 .rel.text.flash_protect_default
                0x00084568       0x18 arch/arm/cpu/arm920t/start.o
 .rel.text.flash_print_info
                0x00084580       0xa0 arch/arm/cpu/arm920t/start.o
 .rel.text.flash_full_status_check
                0x00084620       0x78 arch/arm/cpu/arm920t/start.o
 .rel.text.flash_write_cfiword
                0x00084698       0x98 arch/arm/cpu/arm920t/start.o
 .rel.text.write_buff
                0x00084730        0x8 arch/arm/cpu/arm920t/start.o
 .rel.text.flash_erase
                0x00084738       0x30 arch/arm/cpu/arm920t/start.o
 .rel.text.T.196
                0x00084768       0x40 arch/arm/cpu/arm920t/start.o
 .rel.text.flash_get_size
                0x000847a8       0x30 arch/arm/cpu/arm920t/start.o
 .rel.text.flash_init
                0x000847d8       0x20 arch/arm/cpu/arm920t/start.o
 .rel.rodata.cfi_flash_ids
                0x000847f8       0x10 arch/arm/cpu/arm920t/start.o
 .rel.u_boot_list_2_uclass_2_mtd
                0x00084808        0x8 arch/arm/cpu/arm920t/start.o
 .rel.data.mtd_partitions
                0x00084810       0x10 arch/arm/cpu/arm920t/start.o
 .rel.u_boot_list_2_driver_2_cfi_flash
                0x00084820       0x18 arch/arm/cpu/arm920t/start.o
 .rel.text.nand_mtd_to_devnum
                0x00084838        0x8 arch/arm/cpu/arm920t/start.o
 .rel.text.nand_register
                0x00084840       0x28 arch/arm/cpu/arm920t/start.o
 .rel.text.nand_init
                0x00084868       0x18 arch/arm/cpu/arm920t/start.o
 .rel.text.write_bbt
                0x00084880       0x40 arch/arm/cpu/arm920t/start.o
 .rel.text.verify_bbt_descr
                0x000848c0       0x20 arch/arm/cpu/arm920t/start.o
 .rel.text.create_bbt
                0x000848e0       0x20 arch/arm/cpu/arm920t/start.o
 .rel.text.nand_default_bbt
                0x00084900       0x28 arch/arm/cpu/arm920t/start.o
 .rel.text.nand_unlock
                0x00084928       0x20 arch/arm/cpu/arm920t/start.o
 .rel.text.nand_get_lock_status
                0x00084948        0x8 arch/arm/cpu/arm920t/start.o
 .rel.text.nand_lock
                0x00084950        0x8 arch/arm/cpu/arm920t/start.o
 .rel.text.nand_read_skip_bad
                0x00084958       0x28 arch/arm/cpu/arm920t/start.o
 .rel.text.nand_write_skip_bad
                0x00084980       0x28 arch/arm/cpu/arm920t/start.o
 .rel.text.nand_erase_opts
                0x000849a8       0x48 arch/arm/cpu/arm920t/start.o
 .rel.text.nand_calculate_ecc
                0x000849f0        0x8 arch/arm/cpu/arm920t/start.o
 .rel.text.nand_set_defaults
                0x000849f8       0x88 arch/arm/cpu/arm920t/start.o
 .rel.text.nand_select_chip
                0x00084a80       0x20 arch/arm/cpu/arm920t/start.o
 .rel.text.nand_scan_tail
                0x00084aa0      0x160 arch/arm/cpu/arm920t/start.o
 .rel.text.nand_fill_oob
                0x00084c00       0x20 arch/arm/cpu/arm920t/start.o
 .rel.text.nand_transfer_oob
                0x00084c20       0x20 arch/arm/cpu/arm920t/start.o
 .rel.text.nand_wait
                0x00084c40       0x10 arch/arm/cpu/arm920t/start.o
 .rel.text.nand_scan_ident
                0x00084c50       0x98 arch/arm/cpu/arm920t/start.o
 .rel.text.onfi_async_timing_mode_to_sdr_timings
                0x00000000        0x0 arch/arm/cpu/arm920t/start.o
 .rel.text.board_nand_init
                0x00084ce8       0x28 arch/arm/cpu/arm920t/start.o
 .rel.text.s3c24x0_nand_correct_data
                0x00084d10        0x8 arch/arm/cpu/arm920t/start.o
 .rel.data.bbt_mirror_descr
                0x00084d18        0x8 arch/arm/cpu/arm920t/start.o
 .rel.data.bbt_main_no_oob_descr
                0x00084d20        0x8 arch/arm/cpu/arm920t/start.o
 .rel.data.bbt_mirror_no_oob_descr
                0x00084d28        0x8 arch/arm/cpu/arm920t/start.o
 .rel.data.bbt_main_descr
                0x00084d30        0x8 arch/arm/cpu/arm920t/start.o
 .rel.data.nand_flash_ids
                0x00084d38      0x2a0 arch/arm/cpu/arm920t/start.o
 .rel.data.nand_manuf_ids
                0x00084fd8       0x78 arch/arm/cpu/arm920t/start.o
 .rel.text.add_to_list
                0x00085050       0x10 arch/arm/cpu/arm920t/start.o
 .rel.text.ubi_attach
                0x00085060       0xc0 arch/arm/cpu/arm920t/start.o
 .rel.text.ubi_get_device
                0x00085120        0x8 arch/arm/cpu/arm920t/start.o
 .rel.text.ubi_get_by_major
                0x00000000        0x0 arch/arm/cpu/arm920t/start.o
 .rel.text.ubi_major2num
                0x00000000        0x0 arch/arm/cpu/arm920t/start.o
 .rel.text.ubi_mtd_param_parse
                0x00085128       0x18 arch/arm/cpu/arm920t/start.o
 .rel.text.ubi_detach_mtd_dev
                0x00085140       0x18 arch/arm/cpu/arm920t/start.o
 .rel.text.ubi_exit
                0x00085158       0x18 arch/arm/cpu/arm920t/start.o
 .rel.text.ubi_attach_mtd_dev
                0x00085170       0x68 arch/arm/cpu/arm920t/start.o
 .rel.text.ubi_init
                0x000851d8       0x20 arch/arm/cpu/arm920t/start.o
 .rel.text.ubi_enumerate_volumes
                0x00000000        0x0 arch/arm/cpu/arm920t/start.o
 .rel.text.vtbl_check
                0x000851f8        0x8 arch/arm/cpu/arm920t/start.o
 .rel.text.ubi_read_volume_table
                0x00085200       0x20 arch/arm/cpu/arm920t/start.o
 .rel.text.ubi_vtbl_rename_volumes
                0x00000000        0x0 arch/arm/cpu/arm920t/start.o
 .rel.text.ubi_change_vtbl_record
                0x00085220       0x28 arch/arm/cpu/arm920t/start.o
 .rel.text.ubi_add_volume
                0x00085248        0x8 arch/arm/cpu/arm920t/start.o
 .rel.text.ubi_create_volume
                0x00085250        0x8 arch/arm/cpu/arm920t/start.o
 .rel.text.ubi_close_volume
                0x00085258       0x20 arch/arm/cpu/arm920t/start.o
 .rel.text.ubi_eba_write_leb_st
                0x00085278        0x8 arch/arm/cpu/arm920t/start.o
 .rel.text.ubi_eba_write_leb
                0x00085280       0x20 arch/arm/cpu/arm920t/start.o
 .rel.text.ubi_eba_atomic_leb_change
                0x000852a0        0x8 arch/arm/cpu/arm920t/start.o
 .rel.text.ubi_eba_read_leb
                0x000852a8        0x8 arch/arm/cpu/arm920t/start.o
 .rel.text.ubi_self_check_all_ff
                0x000852b0        0x8 arch/arm/cpu/arm920t/start.o
 .rel.text.ubi_io_read
                0x000852b8        0x8 arch/arm/cpu/arm920t/start.o
 .rel.text.ubi_io_write
                0x000852c0       0x18 arch/arm/cpu/arm920t/start.o
 .rel.text.do_sync_erase
                0x000852d8        0x8 arch/arm/cpu/arm920t/start.o
 .rel.text.ubi_io_sync_erase
                0x000852e0       0x18 arch/arm/cpu/arm920t/start.o
 .rel.text.schedule_erase
                0x000852f8        0x8 arch/arm/cpu/arm920t/start.o
 .rel.text.ensure_wear_leveling
                0x00085300        0x8 arch/arm/cpu/arm920t/start.o
 .rel.text.ubi_thread
                0x00000000        0x0 arch/arm/cpu/arm920t/start.o
 .rel.text.ubi_wl_init
                0x00085308       0x10 arch/arm/cpu/arm920t/start.o
 .rel.text.erase_worker
                0x00085318       0x10 arch/arm/cpu/arm920t/start.o
 .rel.text.ubi_wl_scrub_peb
                0x00085328        0x8 arch/arm/cpu/arm920t/start.o
 .rel.text.wear_leveling_worker
                0x00085330        0x8 arch/arm/cpu/arm920t/start.o
 .rel.text.crc32_le
                0x00085338        0x8 arch/arm/cpu/arm920t/start.o
 .rel.text.ubi_update_reserved
                0x00085340        0x8 arch/arm/cpu/arm920t/start.o
 .rel.text.ubi_dump_vol_info
                0x00085348       0x78 arch/arm/cpu/arm920t/start.o
 .rel.text.ubi_dump_flash
                0x000853c0        0x8 arch/arm/cpu/arm920t/start.o
 .rel.text.dm9000_reset
                0x000853c8        0x8 arch/arm/cpu/arm920t/start.o
 .rel.text.dm9000_rx
                0x000853d0       0x38 arch/arm/cpu/arm920t/start.o
 .rel.text.dm9000_init
                0x00085408      0x110 arch/arm/cpu/arm920t/start.o
 .rel.text.dm9000_initialize
                0x00085518       0x30 arch/arm/cpu/arm920t/start.o
 .rel.text.dm9000_send
                0x00085548       0x10 arch/arm/cpu/arm920t/start.o
 .rel.text.serial_register
                0x00085558        0x8 arch/arm/cpu/arm920t/start.o
 .rel.text.serial_reinit_all
                0x00000000        0x0 arch/arm/cpu/arm920t/start.o
 .rel.text.get_current
                0x00085560       0x10 arch/arm/cpu/arm920t/start.o
 .rel.text.on_baudrate
                0x00085570       0x18 arch/arm/cpu/arm920t/start.o
 .rel.text.serial_assign
                0x00085588       0x10 arch/arm/cpu/arm920t/start.o
 .rel.text.serial_stdio_init
                0x00085598       0x38 arch/arm/cpu/arm920t/start.o
 .rel.text.default_serial_console
                0x000855d0        0x8 arch/arm/cpu/arm920t/start.o
 .rel.text.s3c24xx_serial_initialize
                0x000855d8       0x18 arch/arm/cpu/arm920t/start.o
 .rel.u_boot_list_2_env_clbk_2_baudrate
                0x000855f0       0x10 arch/arm/cpu/arm920t/start.o
 .rel.data.s3c24xx_serial0_device
                0x00085600       0x30 arch/arm/cpu/arm920t/start.o
 .rel.data.s3c24xx_serial2_device
                0x00085630       0x30 arch/arm/cpu/arm920t/start.o
 .rel.data.s3c24xx_serial1_device
                0x00085660       0x30 arch/arm/cpu/arm920t/start.o
 .rel.text.spi_set_wordlen
                0x00000000        0x0 arch/arm/cpu/arm920t/start.o
 .rel.text.T.180
                0x00085690       0x18 arch/arm/cpu/arm920t/start.o
 .rel.text.usb_lowlevel_init
                0x000856a8       0x50 arch/arm/cpu/arm920t/start.o
 .rel.text.usb_lowlevel_stop
                0x000856f8        0x8 arch/arm/cpu/arm920t/start.o
 .rel.text.T.181
                0x00085700       0x10 arch/arm/cpu/arm920t/start.o
 .rel.text.sohci_submit_job
                0x00085710       0x58 arch/arm/cpu/arm920t/start.o
 .rel.text.submit_common_msg
                0x00085768       0x58 arch/arm/cpu/arm920t/start.o
 .rel.text.submit_control_msg
                0x000857c0      0x110 arch/arm/cpu/arm920t/start.o
 .rel.text.fs_close
                0x000858d0       0x10 arch/arm/cpu/arm920t/start.o
 .rel.text.fs_uuid
                0x00000000        0x0 arch/arm/cpu/arm920t/start.o
 .rel.text.fs_ls
                0x00000000        0x0 arch/arm/cpu/arm920t/start.o
 .rel.text.fs_exists
                0x000858e0       0x10 arch/arm/cpu/arm920t/start.o
 .rel.text.fs_size
                0x00000000        0x0 arch/arm/cpu/arm920t/start.o
 .rel.text.fs_probe_unsupported
                0x000858f0        0x8 arch/arm/cpu/arm920t/start.o
 .rel.text.fs_write
                0x00000000        0x0 arch/arm/cpu/arm920t/start.o
 .rel.text.fs_read
                0x00000000        0x0 arch/arm/cpu/arm920t/start.o
 .rel.text.fs_set_blk_dev
                0x000858f8       0x28 arch/arm/cpu/arm920t/start.o
 .rel.text.do_fs_type
                0x00000000        0x0 arch/arm/cpu/arm920t/start.o
 .rel.text.do_fs_uuid
                0x00000000        0x0 arch/arm/cpu/arm920t/start.o
 .rel.text.do_save
                0x00000000        0x0 arch/arm/cpu/arm920t/start.o
 .rel.text.do_ls
                0x00000000        0x0 arch/arm/cpu/arm920t/start.o
 .rel.text.do_load
                0x00000000        0x0 arch/arm/cpu/arm920t/start.o
 .rel.text.do_size
                0x00000000        0x0 arch/arm/cpu/arm920t/start.o
 .rel.text.uboot_ubifs_umount
                0x00085920       0x10 arch/arm/cpu/arm920t/start.o
 .rel.text.ubifs_decompress
                0x00085930        0x8 arch/arm/cpu/arm920t/start.o
 .rel.text.ubifs_findfile
                0x00085938       0x28 arch/arm/cpu/arm920t/start.o
 .rel.text.ubifs_size
                0x00085960       0x18 arch/arm/cpu/arm920t/start.o
 .rel.text.ubifs_exists
                0x00085978        0x8 arch/arm/cpu/arm920t/start.o
 .rel.text.ubifs_ls
                0x00085980       0x80 arch/arm/cpu/arm920t/start.o
 .rel.text.compr_init
                0x00085a00        0x8 arch/arm/cpu/arm920t/start.o
 .rel.text.ubifs_compressors_init
                0x00085a08       0x18 arch/arm/cpu/arm920t/start.o
 .rel.text.ubifs_read
                0x00085a20       0x40 arch/arm/cpu/arm920t/start.o
 .rel.text.ubifs_load
                0x00085a60       0x18 arch/arm/cpu/arm920t/start.o
 .rel.text.ubifs_alloc_inode
                0x00085a78        0x8 arch/arm/cpu/arm920t/start.o
 .rel.text.ubifs_init
                0x00085a80        0x8 arch/arm/cpu/arm920t/start.o
 .rel.text.ubifs_umount
                0x00085a88        0x8 arch/arm/cpu/arm920t/start.o
 .rel.text.iput
                0x00085a90        0x8 arch/arm/cpu/arm920t/start.o
 .rel.text.ubifs_iget
                0x00085a98        0x8 arch/arm/cpu/arm920t/start.o
 .rel.text.ubifs_mount
                0x00085aa0       0x48 arch/arm/cpu/arm920t/start.o
 .rel.text.uboot_ubifs_mount
                0x00085ae8       0x18 arch/arm/cpu/arm920t/start.o
 .rel.text.ubifs_read_superblock
                0x00085b00       0x18 arch/arm/cpu/arm920t/start.o
 .rel.text.ubifs_unpack_bits
                0x00085b18       0x40 arch/arm/cpu/arm920t/start.o
 .rel.text.lpt_gc
                0x00000000        0x0 arch/arm/cpu/arm920t/start.o
 .rel.text.ubifs_scan
                0x00085b58       0x28 arch/arm/cpu/arm920t/start.o
 .rel.text.ubifs_add_to_cat
                0x00085b80       0x38 arch/arm/cpu/arm920t/start.o
 .rel.text.scan_check_cb
                0x00000000        0x0 arch/arm/cpu/arm920t/start.o
 .rel.text.dirty_cow_znode
                0x00085bb8        0x8 arch/arm/cpu/arm920t/start.o
 .rel.text.ubifs_tnc_has_node
                0x00000000        0x0 arch/arm/cpu/arm920t/start.o
 .rel.text.tnc_delete
                0x00085bc0        0x8 arch/arm/cpu/arm920t/start.o
 .rel.text.ubifs_tnc_add_nm
                0x00085bc8        0x8 arch/arm/cpu/arm920t/start.o
 .rel.text.ubifs_tnc_close
                0x00085bd0        0x8 arch/arm/cpu/arm920t/start.o
 .rel.text.ubifs_load_znode
                0x00085bd8        0x8 arch/arm/cpu/arm920t/start.o
 .rel.text.dbg_ntype
                0x00000000        0x0 arch/arm/cpu/arm920t/start.o
 .rel.text.dbg_cstate
                0x00000000        0x0 arch/arm/cpu/arm920t/start.o
 .rel.text.dbg_jhead
                0x00000000        0x0 arch/arm/cpu/arm920t/start.o
 .rel.text.ubifs_dump_index
                0x00000000        0x0 arch/arm/cpu/arm920t/start.o
 .rel.text.dbg_snprintf_key
                0x00000000        0x0 arch/arm/cpu/arm920t/start.o
 .rel.text.crc16
                0x00085be0        0x8 arch/arm/cpu/arm920t/start.o
 .rel.text.ubifs_replay_journal
                0x00085be8       0x30 arch/arm/cpu/arm920t/start.o
 .rel.text.yaffs_free_raw_obj
                0x00085c18       0x20 arch/arm/cpu/arm920t/start.o
 .rel.text.yaffs_free_raw_tnode
                0x00085c38       0x20 arch/arm/cpu/arm920t/start.o
 .rel.text.yaffs_init_raw_tnodes_and_objs
                0x00085c58       0x20 arch/arm/cpu/arm920t/start.o
 .rel.text.yaffs_deinit_raw_tnodes_and_objs
                0x00085c78       0x28 arch/arm/cpu/arm920t/start.o
 .rel.text.yaffs_alloc_raw_obj
                0x00085ca0       0x30 arch/arm/cpu/arm920t/start.o
 .rel.text.yaffs_alloc_raw_tnode
                0x00085cd0       0x40 arch/arm/cpu/arm920t/start.o
 .rel.text.yaffs_count_chunk_bits
                0x00085d10       0x30 arch/arm/cpu/arm920t/start.o
 .rel.text.yaffs_still_some_chunks
                0x00085d40       0x30 arch/arm/cpu/arm920t/start.o
 .rel.text.yaffs_verify_chunk_bit_id
                0x00085d70       0x30 arch/arm/cpu/arm920t/start.o
 .rel.text.yaffs_check_chunk_bit
                0x00085da0       0x30 arch/arm/cpu/arm920t/start.o
 .rel.text.yaffs_set_chunk_bit
                0x00085dd0       0x30 arch/arm/cpu/arm920t/start.o
 .rel.text.yaffs_clear_chunk_bit
                0x00085e00       0x30 arch/arm/cpu/arm920t/start.o
 .rel.text.yaffs_clear_chunk_bits
                0x00085e30       0x30 arch/arm/cpu/arm920t/start.o
 .rel.text.yaffsfs_SetError
                0x00085e60        0x8 arch/arm/cpu/arm920t/start.o
 .rel.text.yaffsfs_GetLastError
                0x00000000        0x0 arch/arm/cpu/arm920t/start.o
 .rel.text.yaffsfs_GetError
                0x00000000        0x0 arch/arm/cpu/arm920t/start.o
 .rel.text.cmd_yaffs_mv
                0x00085e68       0x20 arch/arm/cpu/arm920t/start.o
 .rel.text.cmd_yaffs_tracemask
                0x00085e88       0x10 arch/arm/cpu/arm920t/start.o
 .rel.text.yaffs_bug_fn
                0x00000000        0x0 arch/arm/cpu/arm920t/start.o
 .rel.text.cmd_yaffs_rm
                0x00085e98       0x20 arch/arm/cpu/arm920t/start.o
 .rel.text.cmd_yaffs_rmdir
                0x00085eb8       0x20 arch/arm/cpu/arm920t/start.o
 .rel.text.cmd_yaffs_mkdir
                0x00085ed8       0x20 arch/arm/cpu/arm920t/start.o
 .rel.text.cmd_yaffs_ls
                0x00085ef8       0x60 arch/arm/cpu/arm920t/start.o
 .rel.text.cmd_yaffs_mwrite_file
                0x00085f58       0x20 arch/arm/cpu/arm920t/start.o
 .rel.text.cmd_yaffs_mread_file
                0x00085f78       0x18 arch/arm/cpu/arm920t/start.o
 .rel.text.read_a_file
                0x00085f90       0x18 arch/arm/cpu/arm920t/start.o
 .rel.text.cmd_yaffs_umount
                0x00085fa8       0x20 arch/arm/cpu/arm920t/start.o
 .rel.text.cmd_yaffs_mount
                0x00085fc8       0x20 arch/arm/cpu/arm920t/start.o
 .rel.text.make_a_file
                0x00085fe8       0x20 arch/arm/cpu/arm920t/start.o
 .rel.text.cmd_yaffs_dev_ls
                0x00086008       0x28 arch/arm/cpu/arm920t/start.o
 .rel.text.cmd_yaffs_devconfig
                0x00086030       0x78 arch/arm/cpu/arm920t/start.o
 .rel.text.yaffs2_checkpt_rd
                0x000860a8       0x28 arch/arm/cpu/arm920t/start.o
 .rel.text.yaffs_checkpt_erase
                0x000860d0       0x40 arch/arm/cpu/arm920t/start.o
 .rel.text.yaffs2_checkpt_invalidate_stream
                0x00086110       0x10 arch/arm/cpu/arm920t/start.o
 .rel.text.yaffs2_checkpt_flush_buffer
                0x00086120       0x50 arch/arm/cpu/arm920t/start.o
 .rel.text.yaffs_checkpt_close
                0x00086170       0x10 arch/arm/cpu/arm920t/start.o
 .rel.text.yaffs2_checkpt_open
                0x00086180       0x10 arch/arm/cpu/arm920t/start.o
 .rel.text.yaffs_ecc_calc
                0x00086190        0x8 arch/arm/cpu/arm920t/start.o
 .rel.text.yaffs_ecc_calc_other
                0x00086198        0x8 arch/arm/cpu/arm920t/start.o
 .rel.text.yaffs_error_to_str
                0x00000000        0x0 arch/arm/cpu/arm920t/start.o
 .rel.text.yaffs_set_trace
                0x00000000        0x0 arch/arm/cpu/arm920t/start.o
 .rel.text.yaffs_get_trace
                0x00000000        0x0 arch/arm/cpu/arm920t/start.o
 .rel.text.yaffsfs_HandleToObject
                0x000861a0       0x18 arch/arm/cpu/arm920t/start.o
 .rel.text.yaffsfs_IsPathDivider
                0x00000000        0x0 arch/arm/cpu/arm920t/start.o
 .rel.text.yaffsfs_FindDevice
                0x000861b8       0x10 arch/arm/cpu/arm920t/start.o
 .rel.text.yaffsfs_CheckPath
                0x000861c8        0x8 arch/arm/cpu/arm920t/start.o
 .rel.text.yaffs_add_device
                0x000861d0       0x10 arch/arm/cpu/arm920t/start.o
 .rel.text.yaffs_dev_rewind
                0x000861e0       0x10 arch/arm/cpu/arm920t/start.o
 .rel.text.yaffs_next_dev
                0x000861f0       0x10 arch/arm/cpu/arm920t/start.o
 .rel.text.yaffsfs_RemoveObjectCallback
                0x00086200        0x8 arch/arm/cpu/arm920t/start.o
 .rel.text.yaffsfs_FindInodeIdForObject
                0x00086208        0x8 arch/arm/cpu/arm920t/start.o
 .rel.text.yaffsfs_DoFindDirectory
                0x00086210       0x18 arch/arm/cpu/arm920t/start.o
 .rel.text.yaffs_n_handles
                0x00000000        0x0 arch/arm/cpu/arm920t/start.o
 .rel.text.yaffsfs_FollowLink
                0x00086228        0x8 arch/arm/cpu/arm920t/start.o
 .rel.text.yaffsfs_NewHandle
                0x00086230        0x8 arch/arm/cpu/arm920t/start.o
 .rel.text.yaffs_dup
                0x00000000        0x0 arch/arm/cpu/arm920t/start.o
 .rel.text.yaffs_opendir
                0x00086238       0x10 arch/arm/cpu/arm920t/start.o
 .rel.text.yaffs_readdir
                0x00086248        0x8 arch/arm/cpu/arm920t/start.o
 .rel.text.yaffsfs_PutInode
                0x00086250        0x8 arch/arm/cpu/arm920t/start.o
 .rel.text.yaffs_unmount2
                0x00086258       0x10 arch/arm/cpu/arm920t/start.o
 .rel.text.yaffsfs_PutHandle
                0x00086268       0x10 arch/arm/cpu/arm920t/start.o
 .rel.text.yaffs_mount_common
                0x00086278       0x30 arch/arm/cpu/arm920t/start.o
 .rel.text.yaffsfs_alt_dir_path
                0x000862a8        0x8 arch/arm/cpu/arm920t/start.o
 .rel.text.yaffs_close
                0x000862b0        0x8 arch/arm/cpu/arm920t/start.o
 .rel.text.yaffs_lseek
                0x00000000        0x0 arch/arm/cpu/arm920t/start.o
 .rel.text.yaffs_rename
                0x000862b8        0x8 arch/arm/cpu/arm920t/start.o
 .rel.text.yaffsfs_DoUnlink
                0x000862c0        0x8 arch/arm/cpu/arm920t/start.o
 .rel.text.yaffs_ftruncate
                0x00000000        0x0 arch/arm/cpu/arm920t/start.o
 .rel.text.yaffsfs_do_write
                0x000862c8       0x10 arch/arm/cpu/arm920t/start.o
 .rel.text.yaffsfs_do_read
                0x000862d8       0x10 arch/arm/cpu/arm920t/start.o
 .rel.text.yaffs_open_sharing
                0x000862e8       0x20 arch/arm/cpu/arm920t/start.o
 .rel.text.yaffs_handle_chunk_error
                0x00086308       0x10 arch/arm/cpu/arm920t/start.o
 .rel.text.yaffs_is_managed_tmp_buffer
                0x00000000        0x0 arch/arm/cpu/arm920t/start.o
 .rel.text.yaffs_release_temp_buffer
                0x00086318       0x10 arch/arm/cpu/arm920t/start.o
 .rel.text.yaffs_get_temp_buffer
                0x00086328       0x10 arch/arm/cpu/arm920t/start.o
 .rel.text.yaffs_check_chunk_erased
                0x00086338       0x10 arch/arm/cpu/arm920t/start.o
 .rel.text.yaffs_skip_rest_of_block
                0x00086348       0x30 arch/arm/cpu/arm920t/start.o
 .rel.text.yaffs_add_obj_to_dir
                0x00086378       0x38 arch/arm/cpu/arm920t/start.o
 .rel.text.yaffs_free_obj
                0x000863b0       0x30 arch/arm/cpu/arm920t/start.o
 .rel.text.yaffs_clone_str
                0x000863e0        0x8 arch/arm/cpu/arm920t/start.o
 .rel.text.yaffs_get_symlink_alias
                0x00000000        0x0 arch/arm/cpu/arm920t/start.o
 .rel.text.yaffs_get_obj_name
                0x000863e8       0x10 arch/arm/cpu/arm920t/start.o
 .rel.text.yaffs_find_by_name
                0x000863f8       0x40 arch/arm/cpu/arm920t/start.o
 .rel.text.yaffs_soft_del_worker
                0x00086438       0x38 arch/arm/cpu/arm920t/start.o
 .rel.text.yaffs_rd_data_obj
                0x00086470       0x10 arch/arm/cpu/arm920t/start.o
 .rel.text.yaffs_block_became_dirty
                0x00086480       0x78 arch/arm/cpu/arm920t/start.o
 .rel.text.yaffs_chunk_del
                0x000864f8       0x40 arch/arm/cpu/arm920t/start.o
 .rel.text.yaffs_write_new_chunk
                0x00086538       0x78 arch/arm/cpu/arm920t/start.o
 .rel.text.yaffs_add_find_tnode_0
                0x000865b0       0x10 arch/arm/cpu/arm920t/start.o
 .rel.text.yaffs_put_chunk_in_file
                0x000865c0       0x38 arch/arm/cpu/arm920t/start.o
 .rel.text.yaffs_check_gc
                0x000865f8       0x98 arch/arm/cpu/arm920t/start.o
 .rel.text.yaffs_update_oh
                0x00086690       0x40 arch/arm/cpu/arm920t/start.o
 .rel.text.yaffs_update_parent
                0x000866d0       0x10 arch/arm/cpu/arm920t/start.o
 .rel.text.yaffs_change_obj_name
                0x000866e0       0x30 arch/arm/cpu/arm920t/start.o
 .rel.text.yaffs_generic_obj_del
                0x00086710        0x8 arch/arm/cpu/arm920t/start.o
 .rel.text.yaffs_soft_del_file
                0x00086718       0x10 arch/arm/cpu/arm920t/start.o
 .rel.text.yaffs_update_dirty_dirs
                0x00000000        0x0 arch/arm/cpu/arm920t/start.o
 .rel.text.yaffs_bg_gc
                0x00000000        0x0 arch/arm/cpu/arm920t/start.o
 .rel.text.yaffs_wr_data_obj
                0x00086728       0x30 arch/arm/cpu/arm920t/start.o
 .rel.text.yaffs_flush_file_cache
                0x00086758       0x10 arch/arm/cpu/arm920t/start.o
 .rel.text.yaffs_resize_file_down
                0x00086768       0x10 arch/arm/cpu/arm920t/start.o
 .rel.text.yaffs_del_file
                0x00086778       0x20 arch/arm/cpu/arm920t/start.o
 .rel.text.yaffs_unlink_worker
                0x00086798       0x30 arch/arm/cpu/arm920t/start.o
 .rel.text.yaffs_del_dir_contents
                0x000867c8       0x30 arch/arm/cpu/arm920t/start.o
 .rel.text.yaffs_rename_obj
                0x000867f8       0x20 arch/arm/cpu/arm920t/start.o
 .rel.text.yaffs_del_obj
                0x00086818       0x40 arch/arm/cpu/arm920t/start.o
 .rel.text.yaffs_guts_initialise
                0x00086858       0x70 arch/arm/cpu/arm920t/start.o
 .rel.text.yaffs_do_file_wr
                0x000868c8       0x30 arch/arm/cpu/arm920t/start.o
 .rel.text.yaffs_wr_chunk_tags_nand
                0x000868f8       0x38 arch/arm/cpu/arm920t/start.o
 .rel.text.yaffs_rd_chunk_tags_nand
                0x00086930       0x30 arch/arm/cpu/arm920t/start.o
 .rel.text.yaffs_unpack_tags1
                0x00000000        0x0 arch/arm/cpu/arm920t/start.o
 .rel.text.yaffs_pack_tags2_tags_only
                0x00086960       0x18 arch/arm/cpu/arm920t/start.o
 .rel.text.yaffs_unpack_tags2_tags_only
                0x00086978       0x18 arch/arm/cpu/arm920t/start.o
 .rel.text.yaffs_unpack_tags2
                0x00086990       0x20 arch/arm/cpu/arm920t/start.o
 .rel.text.yaffs_summary_gc
                0x000869b0       0x30 arch/arm/cpu/arm920t/start.o
 .rel.text.yaffs_summary_add
                0x000869e0       0x30 arch/arm/cpu/arm920t/start.o
 .rel.text.yaffs_summary_read
                0x00086a10       0x30 arch/arm/cpu/arm920t/start.o
 .rel.text.yaffs_wr_nand
                0x00086a40       0x10 arch/arm/cpu/arm920t/start.o
 .rel.text.yaffs_handle_rd_data_error
                0x00086a50       0x38 arch/arm/cpu/arm920t/start.o
 .rel.text.T.92
                0x00086a88       0x48 arch/arm/cpu/arm920t/start.o
 .rel.text.yaffs_tags_compat_rd
                0x00086ad0       0x10 arch/arm/cpu/arm920t/start.o
 .rel.text.yaffs_tags_compat_query_block
                0x00086ae0       0x10 arch/arm/cpu/arm920t/start.o
 .rel.text.yaffs_skip_verification
                0x00086af0        0x8 arch/arm/cpu/arm920t/start.o
 .rel.text.yaffs_verify_free_chunks
                0x00086af8       0x18 arch/arm/cpu/arm920t/start.o
 .rel.text.yaffs_verify_oh
                0x00086b10       0x40 arch/arm/cpu/arm920t/start.o
 .rel.text.yaffs_verify_file
                0x00086b50       0x10 arch/arm/cpu/arm920t/start.o
 .rel.text.yaffs_verify_obj
                0x00086b60       0x68 arch/arm/cpu/arm920t/start.o
 .rel.text.yaffs_verify_obj_in_dir
                0x00086bc8       0x48 arch/arm/cpu/arm920t/start.o
 .rel.text.yaffs_verify_dir
                0x00086c10       0x38 arch/arm/cpu/arm920t/start.o
 .rel.text.yaffs_verify_objects
                0x00086c48        0x8 arch/arm/cpu/arm920t/start.o
 .rel.text.yaffs_verify_blk
                0x00086c50       0x30 arch/arm/cpu/arm920t/start.o
 .rel.text.yaffs_verify_blocks
                0x00086c80       0x70 arch/arm/cpu/arm920t/start.o
 .rel.text.yaffs_verify_collected_blk
                0x00086cf0       0x10 arch/arm/cpu/arm920t/start.o
 .rel.text.yaffs1_scan
                0x00086d00       0x70 arch/arm/cpu/arm920t/start.o
 .rel.text.yaffs2_find_refresh_block
                0x00086d70       0x10 arch/arm/cpu/arm920t/start.o
 .rel.text.yaffs2_scan_backwards
                0x00086d80       0xc0 arch/arm/cpu/arm920t/start.o
 .rel.text.yaffs2_checkpt_restore
                0x00086e40       0x68 arch/arm/cpu/arm920t/start.o
 .rel.text.yaffs_checkpoint_save
                0x00086ea8       0x40 arch/arm/cpu/arm920t/start.o
 .rel.text.nandmtd2_MarkNANDBlockBad
                0x00086ee8       0x10 arch/arm/cpu/arm920t/start.o
 .rel.text.nandmtd2_read_chunk_tags
                0x00086ef8       0x10 arch/arm/cpu/arm920t/start.o
 .rel.text.nandmtd2_QueryNANDBlock
                0x00086f08       0x20 arch/arm/cpu/arm920t/start.o
 .rel.text.nandmtd2_write_chunk_tags
                0x00086f28       0x30 arch/arm/cpu/arm920t/start.o
 .rel.rodata.ubifs_super_operations
                0x00086f58       0x10 arch/arm/cpu/arm920t/start.o
 .rel.rodata.CSWTCH.181
                0x00000000        0x0 arch/arm/cpu/arm920t/start.o
 .rel.rodata.CSWTCH.175
                0x00000000        0x0 arch/arm/cpu/arm920t/start.o
 .rel.rodata.CSWTCH.178
                0x00000000        0x0 arch/arm/cpu/arm920t/start.o
 .rel.rodata.CSWTCH.184
                0x00000000        0x0 arch/arm/cpu/arm920t/start.o
 .rel.rodata.CSWTCH.122
                0x00086f68      0x148 arch/arm/cpu/arm920t/start.o
 .rel.rodata.error_list
                0x00000000        0x0 arch/arm/cpu/arm920t/start.o
 .rel.rodata.block_state_name
                0x000870b0       0x50 arch/arm/cpu/arm920t/start.o
 .rel.data.fstypes
                0x00087100       0x90 arch/arm/cpu/arm920t/start.o
 .rel.data.lzo_compr
                0x00087190       0x18 arch/arm/cpu/arm920t/start.o
 .rel.data.none_compr
                0x000871a8       0x10 arch/arm/cpu/arm920t/start.o
 .rel.data.zlib_compr
                0x000871b8       0x18 arch/arm/cpu/arm920t/start.o
 .rel.data.ubifs_fs_type
                0x000871d0       0x18 arch/arm/cpu/arm920t/start.o
 .rel.data.yaffsfs_deviceList
                0x000871e8       0x10 arch/arm/cpu/arm920t/start.o
 .rel.text.efi_load_pe
                0x000871f8       0x88 arch/arm/cpu/arm920t/start.o
 .rel.text.efi_save_gd
                0x00087280        0x8 arch/arm/cpu/arm920t/start.o
 .rel.text.efi_restore_gd
                0x00087288       0x10 arch/arm/cpu/arm920t/start.o
 .rel.text.efi_exit_func
                0x00087298        0x8 arch/arm/cpu/arm920t/start.o
 .rel.text.efi_raise_tpl
                0x000872a0       0x10 arch/arm/cpu/arm920t/start.o
 .rel.text.efi_restore_tpl
                0x000872b0       0x10 arch/arm/cpu/arm920t/start.o
 .rel.text.efi_create_event
                0x000872c0       0x18 arch/arm/cpu/arm920t/start.o
 .rel.text.efi_signal_event
                0x000872d8       0x10 arch/arm/cpu/arm920t/start.o
 .rel.text.efi_close_event
                0x000872e8       0x18 arch/arm/cpu/arm920t/start.o
 .rel.text.efi_check_event
                0x00087300       0x10 arch/arm/cpu/arm920t/start.o
 .rel.text.efi_install_protocol_interface
                0x00087310       0x10 arch/arm/cpu/arm920t/start.o
 .rel.text.efi_reinstall_protocol_interface
                0x00087320       0x10 arch/arm/cpu/arm920t/start.o
 .rel.text.efi_uninstall_protocol_interface
                0x00087330       0x10 arch/arm/cpu/arm920t/start.o
 .rel.text.efi_register_protocol_notify
                0x00087340       0x10 arch/arm/cpu/arm920t/start.o
 .rel.text.efi_locate_device_path
                0x00087350       0x10 arch/arm/cpu/arm920t/start.o
 .rel.text.efi_start_image
                0x00087360       0x20 arch/arm/cpu/arm920t/start.o
 .rel.text.efi_exit
                0x00087380       0x10 arch/arm/cpu/arm920t/start.o
 .rel.text.efi_unload_image
                0x00087390       0x18 arch/arm/cpu/arm920t/start.o
 .rel.text.efi_get_next_monotonic_count
                0x000873a8       0x18 arch/arm/cpu/arm920t/start.o
 .rel.text.efi_set_watchdog_timer
                0x000873c0       0x10 arch/arm/cpu/arm920t/start.o
 .rel.text.efi_connect_controller
                0x000873d0       0x10 arch/arm/cpu/arm920t/start.o
 .rel.text.efi_disconnect_controller
                0x000873e0       0x10 arch/arm/cpu/arm920t/start.o
 .rel.text.efi_close_protocol
                0x000873f0       0x10 arch/arm/cpu/arm920t/start.o
 .rel.text.efi_open_protocol_information
                0x00087400       0x10 arch/arm/cpu/arm920t/start.o
 .rel.text.efi_protocols_per_handle
                0x00087410       0x10 arch/arm/cpu/arm920t/start.o
 .rel.text.efi_locate_handle_buffer
                0x00087420       0x10 arch/arm/cpu/arm920t/start.o
 .rel.text.efi_install_multiple_protocol_interfaces
                0x00087430       0x10 arch/arm/cpu/arm920t/start.o
 .rel.text.efi_uninstall_multiple_protocol_interfaces
                0x00087440       0x10 arch/arm/cpu/arm920t/start.o
 .rel.text.efi_set_mem
                0x00087450       0x10 arch/arm/cpu/arm920t/start.o
 .rel.text.efi_copy_mem
                0x00087460       0x10 arch/arm/cpu/arm920t/start.o
 .rel.text.efi_calculate_crc32
                0x00087470       0x10 arch/arm/cpu/arm920t/start.o
 .rel.text.efi_locate_protocol
                0x00087480       0x18 arch/arm/cpu/arm920t/start.o
 .rel.text.efi_open_protocol
                0x00087498       0x18 arch/arm/cpu/arm920t/start.o
 .rel.text.efi_install_configuration_table
                0x000874b0       0x18 arch/arm/cpu/arm920t/start.o
 .rel.text.efi_locate_handle
                0x000874c8       0x18 arch/arm/cpu/arm920t/start.o
 .rel.text.efi_stall
                0x000874e0       0x10 arch/arm/cpu/arm920t/start.o
 .rel.text.efi_exit_boot_services
                0x000874f0       0x18 arch/arm/cpu/arm920t/start.o
 .rel.text.efi_load_image
                0x00087508       0x20 arch/arm/cpu/arm920t/start.o
 .rel.text.efi_timer_check
                0x00087528        0x8 arch/arm/cpu/arm920t/start.o
 .rel.text.efi_wait_for_event
                0x00087530       0x18 arch/arm/cpu/arm920t/start.o
 .rel.text.efi_set_timer
                0x00087548       0x20 arch/arm/cpu/arm920t/start.o
 .rel.text.efi_free_pool
                0x00087568       0x10 arch/arm/cpu/arm920t/start.o
 .rel.text.efi_free_pages_ext
                0x00087578       0x10 arch/arm/cpu/arm920t/start.o
 .rel.text.efi_allocate_pool
                0x00087588       0x10 arch/arm/cpu/arm920t/start.o
 .rel.text.efi_allocate_pages_ext
                0x00087598       0x10 arch/arm/cpu/arm920t/start.o
 .rel.text.efi_get_memory_map_ext
                0x000875a8       0x10 arch/arm/cpu/arm920t/start.o
 .rel.text.efi_runtime_relocate
                0x000875b8       0x28 arch/arm/cpu/arm920t/start.o
 .rel.text.efi_set_virtual_address_map
                0x000875e0       0x10 arch/arm/cpu/arm920t/start.o
 .rel.text.efi_cout_enable_cursor
                0x000875f0        0x8 arch/arm/cpu/arm920t/start.o
 .rel.text.efi_cout_set_cursor_position
                0x000875f8       0x10 arch/arm/cpu/arm920t/start.o
 .rel.text.efi_cout_clear_screen
                0x00087608        0x8 arch/arm/cpu/arm920t/start.o
 .rel.text.efi_cout_query_mode
                0x00087610       0x20 arch/arm/cpu/arm920t/start.o
 .rel.text.efi_cout_output_string
                0x00087630       0x18 arch/arm/cpu/arm920t/start.o
 .rel.text.efi_get_memory_map
                0x00087648        0x8 arch/arm/cpu/arm920t/start.o
 .rel.text.efi_add_memory_map
                0x00087650       0x10 arch/arm/cpu/arm920t/start.o
 .rel.text.efi_memory_init
                0x00087660       0x10 arch/arm/cpu/arm920t/start.o
 .rel.text.efi_allocate_pages
                0x00087670        0x8 arch/arm/cpu/arm920t/start.o
 .rel.text.efi_gop_register
                0x00087678       0x38 arch/arm/cpu/arm920t/start.o
 .rel.text.efi_disk_register
                0x000876b0       0x60 arch/arm/cpu/arm920t/start.o
 .rel.text.efi_net_push
                0x00087710        0x8 arch/arm/cpu/arm920t/start.o
 .rel.text.efi_net_register
                0x00087718       0xb0 arch/arm/cpu/arm920t/start.o
 .rel.text.efi_net_receive
                0x000877c8       0x28 arch/arm/cpu/arm920t/start.o
 .rel.text.efi_net_get_status
                0x000877f0        0x8 arch/arm/cpu/arm920t/start.o
 .rel.text.efi_net_transmit
                0x000877f8        0x8 arch/arm/cpu/arm920t/start.o
 .rel.text.efi_net_set_dhcp_ack
                0x00087800        0x8 arch/arm/cpu/arm920t/start.o
 .rel.text.lzmaBuffToBuffDecompress
                0x00087808       0x10 arch/arm/cpu/arm920t/start.o
 .rel.text.lzop_decompress
                0x00087818        0x8 arch/arm/cpu/arm920t/start.o
 .rel.text.inflate_fast
                0x00087820       0x18 arch/arm/cpu/arm920t/start.o
 .rel.text.inflate_table
                0x00087838       0x20 arch/arm/cpu/arm920t/start.o
 .rel.text.inflateInit2_
                0x00087858       0x10 arch/arm/cpu/arm920t/start.o
 .rel.text.inflate
                0x00087868      0x188 arch/arm/cpu/arm920t/start.o
 .rel.text.BZ2_bzDecompressInit
                0x000879f0       0x10 arch/arm/cpu/arm920t/start.o
 .rel.text.BZ2_bzlibVersion
                0x00000000        0x0 arch/arm/cpu/arm920t/start.o
 .rel.text.bz_internal_error
                0x00087a00        0x8 arch/arm/cpu/arm920t/start.o
 .rel.text.BZ2_bzDecompress
                0x00087a08       0x10 arch/arm/cpu/arm920t/start.o
 .rel.text.BZ2_decompress
                0x00087a18      0x150 arch/arm/cpu/arm920t/start.o
 .rel.text.crc7
                0x00000000        0x0 arch/arm/cpu/arm920t/start.o
 .rel.text.crc16_ccitt
                0x00087b68        0x8 arch/arm/cpu/arm920t/start.o
 .rel.text.zunzip
                0x00087b70       0x28 arch/arm/cpu/arm920t/start.o
 .rel.text.gunzip
                0x00087b98       0x10 arch/arm/cpu/arm920t/start.o
 .rel.text.initcall_run_list
                0x00087ba8        0x8 arch/arm/cpu/arm920t/start.o
 .rel.text.lmb_alloc_base
                0x00087bb0        0x8 arch/arm/cpu/arm920t/start.o
 .rel.text.list_sort
                0x00087bb8        0x8 arch/arm/cpu/arm920t/start.o
 .rel.text.fdt_next_tag
                0x00087bc0       0x48 arch/arm/cpu/arm920t/start.o
 .rel.text.fdt_node_check_compatible
                0x00000000        0x0 arch/arm/cpu/arm920t/start.o
 .rel.text.fdt_get_phandle
                0x00000000        0x0 arch/arm/cpu/arm920t/start.o
 .rel.text.fdt_get_alias_namelen
                0x00087c08        0x8 arch/arm/cpu/arm920t/start.o
 .rel.text.fdt_strerror
                0x00087c10       0x20 arch/arm/cpu/arm920t/start.o
 .rel.text.fdt_find_regions
                0x00000000        0x0 arch/arm/cpu/arm920t/start.o
 .rel.text.fdt_create_empty_tree
                0x00000000        0x0 arch/arm/cpu/arm920t/start.o
 .rel.text.fdt_size_cells
                0x00087c30        0x8 arch/arm/cpu/arm920t/start.o
 .rel.text.fdt_address_cells
                0x00087c38        0x8 arch/arm/cpu/arm920t/start.o
 .rel.text.fdt_next_region
                0x00000000        0x0 arch/arm/cpu/arm920t/start.o
 .rel.text.fdt_add_alias_regions
                0x00000000        0x0 arch/arm/cpu/arm920t/start.o
 .rel.text.hdestroy_r
                0x00087c40        0x8 arch/arm/cpu/arm920t/start.o
 .rel.text.hcreate_r
                0x00087c48        0x8 arch/arm/cpu/arm920t/start.o
 .rel.text.match_string
                0x00087c50        0x8 arch/arm/cpu/arm920t/start.o
 .rel.text.match_entry
                0x00087c58        0x8 arch/arm/cpu/arm920t/start.o
 .rel.text.hexport_r
                0x00087c60       0x18 arch/arm/cpu/arm920t/start.o
 .rel.text.hsearch_r
                0x00087c78        0x8 arch/arm/cpu/arm920t/start.o
 .rel.text.hdelete_r
                0x00087c80        0x8 arch/arm/cpu/arm920t/start.o
 .rel.text.himport_r
                0x00087c88       0x20 arch/arm/cpu/arm920t/start.o
 .rel.text.hmatch_r
                0x00000000        0x0 arch/arm/cpu/arm920t/start.o
 .rel.text.print_size
                0x00087ca8       0x28 arch/arm/cpu/arm920t/start.o
 .rel.text.display_options
                0x00087cd0       0x10 arch/arm/cpu/arm920t/start.o
 .rel.text.print_buffer
                0x00087ce0       0x28 arch/arm/cpu/arm920t/start.o
 .rel.text.print_freq
                0x00000000        0x0 arch/arm/cpu/arm920t/start.o
 .rel.text.crc32_no_comp
                0x00087d08        0x8 arch/arm/cpu/arm920t/start.o
 .rel.text.hang
                0x00087d10        0x8 arch/arm/cpu/arm920t/start.o
 .rel.text.skip_spaces
                0x00000000        0x0 arch/arm/cpu/arm920t/start.o
 .rel.text.strim
                0x00087d18        0x8 arch/arm/cpu/arm920t/start.o
 .rel.text.match
                0x00087d20       0xa0 arch/arm/cpu/arm920t/start.o
 .rel.text.relocate
                0x00087dc0        0x8 arch/arm/cpu/arm920t/start.o
 .rel.text.quantifier
                0x00087dc8       0x10 arch/arm/cpu/arm920t/start.o
 .rel.text.compile
                0x00087dd8       0x38 arch/arm/cpu/arm920t/start.o
 .rel.text.slre_compile
                0x00087e10       0x10 arch/arm/cpu/arm920t/start.o
 .rel.text.strncasecmp
                0x00000000        0x0 arch/arm/cpu/arm920t/start.o
 .rel.text.strtok
                0x00000000        0x0 arch/arm/cpu/arm920t/start.o
 .rel.text.rand
                0x00000000        0x0 arch/arm/cpu/arm920t/start.o
 .rel.text.srand
                0x00000000        0x0 arch/arm/cpu/arm920t/start.o
 .rel.text.simple_itoa
                0x00087e20        0x8 arch/arm/cpu/arm920t/start.o
 .rel.text.__assert_fail
                0x00000000        0x0 arch/arm/cpu/arm920t/start.o
 .rel.text.string
                0x00087e28        0x8 arch/arm/cpu/arm920t/start.o
 .rel.text.number
                0x00087e30        0x8 arch/arm/cpu/arm920t/start.o
 .rel.text.vsnprintf_internal
                0x00087e38       0x10 arch/arm/cpu/arm920t/start.o
 .rel.text.print_grouped_ull
                0x00000000        0x0 arch/arm/cpu/arm920t/start.o
 .rel.text.simple_strtoul
                0x00087e48        0x8 arch/arm/cpu/arm920t/start.o
 .rel.text.simple_strtoull
                0x00087e50        0x8 arch/arm/cpu/arm920t/start.o
 .rel.text.trailing_strtoln
                0x00087e58        0x8 arch/arm/cpu/arm920t/start.o
 .rel.text.strmhz
                0x00087e60       0x10 arch/arm/cpu/arm920t/start.o
 .rel.rodata.efi_boot_services
                0x00087e70      0x150 arch/arm/cpu/arm920t/start.o
 .rel.rodata.efi_runtime_detach_list
                0x00087fc0       0x48 arch/arm/cpu/arm920t/start.o
 .rel.rodata.efi_con_out
                0x00088008       0x50 arch/arm/cpu/arm920t/start.o
 .rel.rodata.efi_console_control
                0x00088058       0x18 arch/arm/cpu/arm920t/start.o
 .rel.rodata.efi_con_in
                0x00088070       0x10 arch/arm/cpu/arm920t/start.o
 .rel.rodata.z_errmsg
                0x00000000        0x0 arch/arm/cpu/arm920t/start.o
 .rel.rodata.fdt_errtable
                0x00088080       0x58 arch/arm/cpu/arm920t/start.o
 .rel.rodata.meta_chars
                0x000880d8        0x8 arch/arm/cpu/arm920t/start.o
 .rel.data.loaded_image_info_obj.6085
                0x000880e0       0x10 arch/arm/cpu/arm920t/start.o
 .rel.data.efi_class_maps
                0x000880f0       0x10 arch/arm/cpu/arm920t/start.o
 .rel.data.efi_obj_list
                0x00088100       0x10 arch/arm/cpu/arm920t/start.o
 .rel.data.efi_mem
                0x00088110       0x10 arch/arm/cpu/arm920t/start.o
 .rel.data.current
                0x00000000        0x0 arch/arm/cpu/arm920t/start.o
 .rel.text.arp_init
                0x00088120       0x30 arch/arm/cpu/arm920t/start.o
 .rel.text.arp_receive
                0x00088150       0x40 arch/arm/cpu/arm920t/start.o
 .rel.text.arp_raw_request
                0x00088190       0x18 arch/arm/cpu/arm920t/start.o
 .rel.text.arp_request
                0x000881a8       0x38 arch/arm/cpu/arm920t/start.o
 .rel.text.arp_timeout_check
                0x000881e0       0x28 arch/arm/cpu/arm920t/start.o
 .rel.text.bootp_reset
                0x00088208       0x20 arch/arm/cpu/arm920t/start.o
 .rel.text.dhcp_process_options
                0x00088228       0x68 arch/arm/cpu/arm920t/start.o
 .rel.text.dhcp_packet_process_options
                0x00088290        0x8 arch/arm/cpu/arm920t/start.o
 .rel.text.dhcp_extended
                0x00088298       0x18 arch/arm/cpu/arm920t/start.o
 .rel.text.bootp_request
                0x000882b0       0x78 arch/arm/cpu/arm920t/start.o
 .rel.text.dhcp_handler
                0x00088328       0x90 arch/arm/cpu/arm920t/start.o
 .rel.text.bootp_timeout_handler
                0x000883b8       0x28 arch/arm/cpu/arm920t/start.o
 .rel.text.eth_set_current_to_next
                0x000883e0        0x8 arch/arm/cpu/arm920t/start.o
 .rel.text.eth_set_dev
                0x000883e8        0x8 arch/arm/cpu/arm920t/start.o
 .rel.text.eth_get_dev_by_index
                0x00000000        0x0 arch/arm/cpu/arm920t/start.o
 .rel.text.eth_get_dev_index
                0x000883f0        0x8 arch/arm/cpu/arm920t/start.o
 .rel.text.eth_halt
                0x000883f8        0x8 arch/arm/cpu/arm920t/start.o
 .rel.text.eth_send
                0x00088400        0x8 arch/arm/cpu/arm920t/start.o
 .rel.text.eth_rx
                0x00088408        0x8 arch/arm/cpu/arm920t/start.o
 .rel.text.on_ethaddr
                0x00088410        0x8 arch/arm/cpu/arm920t/start.o
 .rel.text.eth_init
                0x00088418       0x10 arch/arm/cpu/arm920t/start.o
 .rel.text.eth_unregister
                0x00000000        0x0 arch/arm/cpu/arm920t/start.o
 .rel.text.eth_register
                0x00088428       0x18 arch/arm/cpu/arm920t/start.o
 .rel.text.eth_write_hwaddr
                0x00088440       0x30 arch/arm/cpu/arm920t/start.o
 .rel.text.eth_initialize
                0x00088470       0x78 arch/arm/cpu/arm920t/start.o
 .rel.text.eth_get_dev_by_name
                0x000884e8       0x28 arch/arm/cpu/arm920t/start.o
 .rel.text.eth_get_name
                0x00088510       0x10 arch/arm/cpu/arm920t/start.o
 .rel.text.eth_current_changed
                0x00088520       0x28 arch/arm/cpu/arm920t/start.o
 .rel.text.eth_set_current
                0x00088548       0x20 arch/arm/cpu/arm920t/start.o
 .rel.text.eth_try_another
                0x00088568       0x28 arch/arm/cpu/arm920t/start.o
 .rel.text.eth_mac_skip
                0x00088590       0x10 arch/arm/cpu/arm920t/start.o
 .rel.text.eth_setenv_enetaddr
                0x000885a0        0x8 arch/arm/cpu/arm920t/start.o
 .rel.text.eth_setenv_enetaddr_by_index
                0x000885a8       0x10 arch/arm/cpu/arm920t/start.o
 .rel.text.eth_getenv_enetaddr_by_index
                0x000885b8       0x10 arch/arm/cpu/arm920t/start.o
 .rel.text.on_bootfile
                0x000885c8        0x8 arch/arm/cpu/arm920t/start.o
 .rel.text.start_again_timeout_handler
                0x000885d0        0x8 arch/arm/cpu/arm920t/start.o
 .rel.text.net_get_udp_handler
                0x00000000        0x0 arch/arm/cpu/arm920t/start.o
 .rel.text.net_set_udp_handler
                0x000885d8       0x10 arch/arm/cpu/arm920t/start.o
 .rel.text.net_get_arp_handler
                0x000885e8        0x8 arch/arm/cpu/arm920t/start.o
 .rel.text.net_set_arp_handler
                0x00000000        0x0 arch/arm/cpu/arm920t/start.o
 .rel.text.on_serverip
                0x000885f0        0x8 arch/arm/cpu/arm920t/start.o
 .rel.text.on_netmask
                0x000885f8        0x8 arch/arm/cpu/arm920t/start.o
 .rel.text.on_gatewayip
                0x00088600        0x8 arch/arm/cpu/arm920t/start.o
 .rel.text.on_ipaddr
                0x00088608        0x8 arch/arm/cpu/arm920t/start.o
 .rel.text.on_vlan
                0x00088610        0x8 arch/arm/cpu/arm920t/start.o
 .rel.text.on_nvlan
                0x00088618        0x8 arch/arm/cpu/arm920t/start.o
 .rel.text.net_eth_hdr_size
                0x00088620        0x8 arch/arm/cpu/arm920t/start.o
 .rel.text.vlan_to_string
                0x00000000        0x0 arch/arm/cpu/arm920t/start.o
 .rel.text.ip_to_string
                0x00088628        0x8 arch/arm/cpu/arm920t/start.o
 .rel.text.net_set_timeout_handler
                0x00088630       0x18 arch/arm/cpu/arm920t/start.o
 .rel.text.net_set_ip_header
                0x00088648        0x8 arch/arm/cpu/arm920t/start.o
 .rel.text.net_set_udp_header
                0x00088650        0x8 arch/arm/cpu/arm920t/start.o
 .rel.text.net_update_ether
                0x00088658        0x8 arch/arm/cpu/arm920t/start.o
 .rel.text.net_set_ether
                0x00088660       0x10 arch/arm/cpu/arm920t/start.o
 .rel.text.net_process_received_packet
                0x00088670       0x40 arch/arm/cpu/arm920t/start.o
 .rel.text.net_send_udp_packet
                0x000886b0       0x40 arch/arm/cpu/arm920t/start.o
 .rel.text.net_start_again
                0x000886f0       0x60 arch/arm/cpu/arm920t/start.o
 .rel.text.net_init
                0x00088750       0x48 arch/arm/cpu/arm920t/start.o
 .rel.text.net_loop
                0x00088798      0x1a0 arch/arm/cpu/arm920t/start.o
 .rel.text.net_auto_load
                0x00088938       0x18 arch/arm/cpu/arm920t/start.o
 .rel.text.rpc_lookup_reply
                0x00088950       0x18 arch/arm/cpu/arm920t/start.o
 .rel.text.nfs_mount_reply
                0x00088968       0x18 arch/arm/cpu/arm920t/start.o
 .rel.text.nfs_umountall_reply
                0x00088980       0x18 arch/arm/cpu/arm920t/start.o
 .rel.text.rpc_req
                0x00088998       0x40 arch/arm/cpu/arm920t/start.o
 .rel.text.nfs_umountall_req
                0x000889d8       0x10 arch/arm/cpu/arm920t/start.o
 .rel.text.nfs_lookup_req
                0x000889e8       0x10 arch/arm/cpu/arm920t/start.o
 .rel.text.nfs_read_req
                0x000889f8       0x18 arch/arm/cpu/arm920t/start.o
 .rel.text.nfs_readlink_req
                0x00088a10       0x18 arch/arm/cpu/arm920t/start.o
 .rel.text.nfs_send
                0x00088a28       0x68 arch/arm/cpu/arm920t/start.o
 .rel.text.nfs_start
                0x00088a90       0x88 arch/arm/cpu/arm920t/start.o
 .rel.text.nfs_lookup_reply
                0x00088b18       0x30 arch/arm/cpu/arm920t/start.o
 .rel.text.nfs_readlink_reply
                0x00088b48       0x20 arch/arm/cpu/arm920t/start.o
 .rel.text.nfs_read_reply
                0x00088b68       0x30 arch/arm/cpu/arm920t/start.o
 .rel.text.nfs_handler
                0x00088b98       0xa8 arch/arm/cpu/arm920t/start.o
 .rel.text.nfs_timeout_handler
                0x00088c40       0x20 arch/arm/cpu/arm920t/start.o
 .rel.text.ping_receive
                0x00088c60       0x18 arch/arm/cpu/arm920t/start.o
 .rel.text.ping_start
                0x00088c78       0x58 arch/arm/cpu/arm920t/start.o
 .rel.text.ping_timeout_handler
                0x00088cd0        0x8 arch/arm/cpu/arm920t/start.o
 .rel.text.tftp_send
                0x00088cd8       0xb8 arch/arm/cpu/arm920t/start.o
 .rel.text.tftp_start
                0x00088d90      0x148 arch/arm/cpu/arm920t/start.o
 .rel.text.tftp_timeout_handler
                0x00088ed8       0x40 arch/arm/cpu/arm920t/start.o
 .rel.text.tftp_handler
                0x00088f18       0xd0 arch/arm/cpu/arm920t/start.o
 .rel.u_boot_list_2_env_clbk_2_ethaddr
                0x00088fe8       0x10 arch/arm/cpu/arm920t/start.o
 .rel.u_boot_list_2_env_clbk_2_ipaddr
                0x00088ff8       0x10 arch/arm/cpu/arm920t/start.o
 .rel.u_boot_list_2_env_clbk_2_vlan
                0x00089008       0x10 arch/arm/cpu/arm920t/start.o
 .rel.u_boot_list_2_env_clbk_2_serverip
                0x00089018       0x10 arch/arm/cpu/arm920t/start.o
 .rel.u_boot_list_2_env_clbk_2_bootfile
                0x00089028       0x10 arch/arm/cpu/arm920t/start.o
 .rel.u_boot_list_2_env_clbk_2_netmask
                0x00089038       0x10 arch/arm/cpu/arm920t/start.o
 .rel.u_boot_list_2_env_clbk_2_nvlan
                0x00089048       0x10 arch/arm/cpu/arm920t/start.o
 .rel.u_boot_list_2_env_clbk_2_gatewayip
                0x00089058       0x10 arch/arm/cpu/arm920t/start.o
 .rel.text.do_dm
                0x00089068        0x8 arch/arm/cpu/arm920t/start.o
 .rel.u_boot_list_2_cmd_2_dm
                0x00089070       0x20 arch/arm/cpu/arm920t/start.o
 .rel.data.test_commands
                0x00089090       0x60 arch/arm/cpu/arm920t/start.o
 .rel.text.raise
                0x00000000        0x0 arch/arm/cpu/arm920t/start.o

.rel_dyn_end    0x000890f0        0x0
 *(.__rel_dyn_end)
 .__rel_dyn_end
                0x000890f0        0x0 arch/arm/lib/built-in.o

.end            0x000890f0        0x0
 *(.__end)
 .__end         0x000890f0        0x0 arch/arm/lib/built-in.o
                0x000890f0                _image_binary_end = .
                0x0008a000                . = ALIGN (0x1000)

.mmutable
 *(.mmutable)

.bss_start      0x0007ef00        0x0
 *(.__bss_start)
 .__bss_start   0x0007ef00        0x0 arch/arm/lib/built-in.o
                0x0007ef00                __bss_start
                0x0007ef00                __bss_base = .

.bss            0x0007ef00    0x1e80c
 *(.bss*)
 .bss.params    0x0007ef00        0x4 arch/arm/lib/built-in.o
 .bss.working_fdt
                0x0007ef04        0x4 cmd/built-in.o
                0x0007ef04                working_fdt
 .bss.data.6112
                0x0007ef08      0x400 cmd/built-in.o
 .bss.send_parms
                0x0007f308       0x14 cmd/built-in.o
 .bss.os_data_addr_saved
                0x0007f31c        0x4 cmd/built-in.o
 .bss.his_pad_char
                0x0007f320        0x1 cmd/built-in.o
 *fill*         0x0007f321        0x3 00
 .bss.a_b       0x0007f324       0x18 cmd/built-in.o
 .bss.os_data_char
                0x0007f33c        0x4 cmd/built-in.o
 .bss.os_data_state
                0x0007f340        0x4 cmd/built-in.o
 .bss.k_data_escape
                0x0007f344        0x4 cmd/built-in.o
 .bss.his_pad_count
                0x0007f348        0x4 cmd/built-in.o
 .bss.os_data_addr
                0x0007f34c        0x4 cmd/built-in.o
 .bss.send_ptr  0x0007f350        0x4 cmd/built-in.o
 .bss.bin_start_address
                0x0007f354        0x4 cmd/built-in.o
 .bss.his_quote
                0x0007f358        0x1 cmd/built-in.o
 *fill*         0x0007f359        0x3 00
 .bss.os_data_init
                0x0007f35c        0x4 cmd/built-in.o
 .bss.his_eol   0x0007f360        0x1 cmd/built-in.o
 *fill*         0x0007f361        0x3 00
 .bss.k_data_escape_saved
                0x0007f364        0x4 cmd/built-in.o
 .bss.os_data_state_saved
                0x0007f368        0x4 cmd/built-in.o
 .bss.dp_last_addr
                0x0007f36c        0x4 cmd/built-in.o
 .bss.base_address
                0x0007f370        0x4 cmd/built-in.o
 .bss.mm_last_size
                0x0007f374        0x4 cmd/built-in.o
 .bss.mm_last_addr
                0x0007f378        0x4 cmd/built-in.o
 .bss.dp_last_size
                0x0007f37c        0x4 cmd/built-in.o
 .bss.last_ids  0x0007f380       0x80 cmd/built-in.o
 .bss.current_mtd_dev
                0x0007f400        0x4 cmd/built-in.o
                0x0007f400                current_mtd_dev
 .bss.use_defaults
                0x0007f404        0x1 cmd/built-in.o
                0x0007f404                use_defaults
 *fill*         0x0007f405        0x3 00
 .bss.last_partition
                0x0007f408       0x10 cmd/built-in.o
 .bss.last_parts
                0x0007f418      0x200 cmd/built-in.o
 .bss.initialized.7535
                0x0007f618        0x4 cmd/built-in.o
 .bss.current_mtd_partnum
                0x0007f61c        0x1 cmd/built-in.o
                0x0007f61c                current_mtd_partnum
 *fill*         0x0007f61d        0x3 00
 .bss.mtdids    0x0007f620        0x8 cmd/built-in.o
 .bss.devices   0x0007f628        0x8 cmd/built-in.o
 .bss.last.6444
                0x0007f630        0x8 cmd/built-in.o
 .bss.ubi       0x0007f638        0x4 cmd/built-in.o
 .bss.ubi_dev   0x0007f63c       0x5c cmd/built-in.o
 .bss.ubi_initialized
                0x0007f698        0x4 cmd/built-in.o
 .bss.buffer    0x0007f69c       0x50 cmd/built-in.o
 .bss.ubifs_initialized
                0x0007f6ec        0x4 cmd/built-in.o
 .bss.ubifs_mounted
                0x0007f6f0        0x4 cmd/built-in.o
 .bss.flag_repeat
                0x0007f6f4        0x4 common/built-in.o
 .bss.the_command.5161
                0x0007f6f8      0x104 common/built-in.o
 .bss.ifs       0x0007f7fc        0x4 common/built-in.o
 .bss.last_return_code
                0x0007f800        0x4 common/built-in.o
 .bss.map       0x0007f804      0x100 common/built-in.o
 .bss.do_repeat
                0x0007f904        0x4 common/built-in.o
 .bss.buf.5863  0x0007f908       0x28 common/built-in.o
 .bss.top_vars  0x0007f930        0x4 common/built-in.o
 .bss.stored_bootdelay
                0x0007f934        0x4 common/built-in.o
 .bss.endtime   0x0007f938        0x8 common/built-in.o
 .bss.monitor_flash_len
                0x0007f940        0x4 common/built-in.o
                0x0007f940                monitor_flash_len
 .bss.images    0x0007f944      0x130 common/built-in.o
                0x0007f944                images
 .bss.callback_list
                0x0007fa74        0x4 common/built-in.o
 .bss.flags_list
                0x0007fa78        0x4 common/built-in.o
 .bss.dev_index
                0x0007fa7c        0x4 common/built-in.o
 *fill*         0x0007fa80        0x0 00
 .bss.usb_dev   0x0007fa80    0x12c00 common/built-in.o
 .bss.asynch_allowed
                0x00092680        0x4 common/built-in.o
 .bss.usb_started
                0x00092684        0x1 common/built-in.o
                0x00092684                usb_started
 *fill*         0x00092685        0x3 00
 .bss.usb_hub_index
                0x00092688        0x4 common/built-in.o
 .bss.running.8207
                0x0009268c        0x4 common/built-in.o
 .bss.hub_dev   0x00092690      0x380 common/built-in.o
 .bss.lcd_base  0x00092a10        0x4 common/built-in.o
 .bss.lcd_color_fg
                0x00092a14        0x4 common/built-in.o
 .bss.lcd_line_length
                0x00092a18        0x4 common/built-in.o
                0x00092a18                lcd_line_length
 .bss.lcd_color_bg
                0x00092a1c        0x4 common/built-in.o
 .bss.lcd_is_enabled
                0x00092a20        0x1 common/built-in.o
                0x00092a20                lcd_is_enabled
 .bss.lcd_flush_dcache
                0x00092a21        0x1 common/built-in.o
 *fill*         0x00092a22        0x2 00
 .bss.cons      0x00092a24       0x24 common/built-in.o
 .bss.kbd_testc_tms
                0x00092a48        0x4 common/built-in.o
 .bss.ctrlc_was_pressed
                0x00092a4c        0x4 common/built-in.o
 .bss.ctrlc_disabled
                0x00092a50        0x4 common/built-in.o
 .bss.mem_malloc_brk
                0x00092a54        0x4 common/built-in.o
                0x00092a54                mem_malloc_brk
 .bss.max_total_mem
                0x00092a58        0x4 common/built-in.o
 .bss.max_sbrked_mem
                0x00092a5c        0x4 common/built-in.o
 .bss.current_mallinfo
                0x00092a60       0x28 common/built-in.o
 .bss.mem_malloc_end
                0x00092a88        0x4 common/built-in.o
                0x00092a88                mem_malloc_end
 .bss.top_pad   0x00092a8c        0x4 common/built-in.o
 .bss.mem_malloc_start
                0x00092a90        0x4 common/built-in.o
                0x00092a90                mem_malloc_start
 .bss.devs      0x00092a94       0x4c common/built-in.o
 .bss.stdio_devices
                0x00092ae0        0xc common/built-in.o
                0x00092ae0                stdio_devices
 .bss.hist_list
                0x00092aec       0x50 common/built-in.o
 .bss.hist_lines
                0x00092b3c     0x1414 common/built-in.o
 .bss.hist_max  0x00093f50        0x4 common/built-in.o
 .bss.initted.5153
                0x00093f54        0x4 common/built-in.o
 .bss.hist_add_idx
                0x00093f58        0x4 common/built-in.o
 .bss.hist_num  0x00093f5c        0x4 common/built-in.o
 .bss.console_buffer
                0x00093f60      0x104 common/built-in.o
                0x00093f60                console_buffer
 .bss.xyz       0x00094064      0x434 common/built-in.o
 .bss.status_led_init_done
                0x00094498        0x4 drivers/built-in.o
 .bss.mtd_idr   0x0009449c      0x200 drivers/mtd/built-in.o
 .bss.cfi_flash_base
                0x0009469c        0x4 drivers/mtd/built-in.o
 .bss.saved_info.8267
                0x000946a0        0x4 drivers/mtd/built-in.o
 .bss.saved_sector.8266
                0x000946a4        0x4 drivers/mtd/built-in.o
 .bss.flash_info
                0x000946a8       0xf4 drivers/mtd/built-in.o
                0x000946a8                flash_info
 .bss.nand_info
                0x0009479c        0x4 drivers/mtd/nand/built-in.o
                0x0009479c                nand_info
 .bss.nand_chip
                0x000947a0      0x410 drivers/mtd/nand/built-in.o
 .bss.total_nand_size
                0x00094bb0        0x4 drivers/mtd/nand/built-in.o
 .bss.dev_name  0x00094bb4        0x8 drivers/mtd/nand/built-in.o
 .bss.vidh      0x00094bbc        0x4 drivers/mtd/ubi/built-in.o
 .bss.ech       0x00094bc0        0x4 drivers/mtd/ubi/built-in.o
 .bss.mtd_devs  0x00094bc4        0x4 drivers/mtd/ubi/built-in.o
 .bss.ubi_wl_entry_slab
                0x00094bc8        0x4 drivers/mtd/ubi/built-in.o
                0x00094bc8                ubi_wl_entry_slab
 .bss.ubi_devices
                0x00094bcc       0x80 drivers/mtd/ubi/built-in.o
                0x00094bcc                ubi_devices
 .bss.mtd_dev_param
                0x00094c4c      0x980 drivers/mtd/ubi/built-in.o
 .bss.empty_vtbl_record
                0x000955cc       0xac drivers/mtd/ubi/built-in.o
 .bss.dm9000_info
                0x00095678       0xe8 drivers/net/built-in.o
 .bss.serial_devices
                0x00095760        0x4 drivers/serial/built-in.o
 .bss.serial_current
                0x00095764        0x4 drivers/serial/built-in.o
 .bss.ohci_inited
                0x00095768        0x1 drivers/usb/host/built-in.o
 *fill*         0x00095769        0x3 00
 .bss.phcca     0x0009576c        0x4 drivers/usb/host/built-in.o
                0x0009576c                phcca
 .bss.got_rhsc  0x00095770        0x4 drivers/usb/host/built-in.o
                0x00095770                got_rhsc
 .bss.ptd       0x00095774        0x4 drivers/usb/host/built-in.o
                0x00095774                ptd
 .bss.gohci     0x00095778       0xc8 drivers/usb/host/built-in.o
 .bss.urb_priv  0x00095840       0xd4 drivers/usb/host/built-in.o
                0x00095840                urb_priv
 .bss.devgone   0x00095914        0x4 drivers/usb/host/built-in.o
                0x00095914                devgone
 *fill*         0x00095918        0x8 00
 .bss.gtd       0x00095920     0x1040 drivers/usb/host/built-in.o
                0x00095920                gtd
 .bss.ohci_dev  0x00096960      0x190 drivers/usb/host/built-in.o
                0x00096960                ohci_dev
 *fill*         0x00096af0       0x10 00
 .bss.ghcca     0x00096b00      0x100 drivers/usb/host/built-in.o
                0x00096b00                ghcca
 .bss.urb_finished
                0x00096c00        0x4 drivers/usb/host/built-in.o
                0x00096c00                urb_finished
 .bss.fs_partition
                0x00096c04       0x50 fs/built-in.o
 .bss.fs_type   0x00096c54        0x4 fs/built-in.o
 .bss.fs_dev_desc
                0x00096c58        0x4 fs/built-in.o
 .bss.ubifs_compressors
                0x00096c5c        0xc fs/built-in.o
                0x00096c5c                ubifs_compressors
 .bss.ubifs_clean_zn_cnt
                0x00096c68        0x4 fs/built-in.o
                0x00096c68                ubifs_clean_zn_cnt
 .bss.ubifs_sb  0x00096c6c        0x4 fs/built-in.o
                0x00096c6c                ubifs_sb
 .bss.inodes_locked_down
                0x00096c70      0x100 fs/built-in.o
 .bss.ubifs_inode_slab
                0x00096d70        0x4 fs/built-in.o
                0x00096d70                ubifs_inode_slab
 .bss.yaffs_trace_mask
                0x00096d74        0x4 fs/built-in.o
                0x00096d74                yaffs_trace_mask
 .bss.yaffs_errno
                0x00096d78        0x4 fs/built-in.o
 .bss.yaffs_wr_attempts
                0x00096d7c        0x4 fs/built-in.o
                0x00096d7c                yaffs_wr_attempts
 .bss.yaffsfs_dsc
                0x00096d80     0x2b20 fs/built-in.o
 .bss.yaffsfs_handle
                0x000998a0      0x190 fs/built-in.o
 .bss.dev_iterator
                0x00099a30        0x4 fs/built-in.o
 .bss.yaffsfs_inode
                0x00099a34      0x320 fs/built-in.o
 *fill*         0x00099d54        0x4 00
 .bss.yaffsfs_fd
                0x00099d58      0x640 fs/built-in.o
 .bss.search_contexts
                0x0009a398        0x8 fs/built-in.o
 .bss.spare_ff.6260
                0x0009a3a0       0x10 fs/built-in.o
 .bss.init.6206
                0x0009a3b0        0x4 fs/built-in.o
 .bss.spare_ff.6205
                0x0009a3b4       0x10 fs/built-in.o
 .bss.init.6261
                0x0009a3c4        0x4 fs/built-in.o
 .bss.yaffs_free_verification_failures
                0x0009a3c8        0x4 fs/built-in.o
 .bss.app_gd    0x0009a3cc        0x4 lib/built-in.o
 .bss.efi_gd    0x0009a3d0        0x4 lib/built-in.o
 *fill*         0x0009a3d4        0x4 00
 .bss.mono.6180
                0x0009a3d8        0x8 lib/built-in.o
 .bss.lastoff.7804
                0x0009a3e0        0x4 lib/built-in.o
 .bss.console_size_queried
                0x0009a3e4        0x1 lib/built-in.o
 .bss.new_rx_packet
                0x0009a3e5        0x1 lib/built-in.o
 *fill*         0x0009a3e6        0x2 00
 .bss.dhcp_ack  0x0009a3e8        0x4 lib/built-in.o
 .bss.new_tx_packet
                0x0009a3ec        0x4 lib/built-in.o
 .bss.errno     0x0009a3f0        0x4 lib/built-in.o
                0x0009a3f0                errno
 .bss.local.5504
                0x0009a3f4       0x18 lib/built-in.o
 .bss.arp_tx_packet_buf
                0x0009a40c      0x620 net/built-in.o
 .bss.arp_wait_packet_ethaddr
                0x0009aa2c        0x4 net/built-in.o
                0x0009aa2c                arp_wait_packet_ethaddr
 .bss.arp_tx_packet
                0x0009aa30        0x4 net/built-in.o
 .bss.arp_wait_tx_packet_size
                0x0009aa34        0x4 net/built-in.o
                0x0009aa34                arp_wait_tx_packet_size
 .bss.arp_wait_try
                0x0009aa38        0x4 net/built-in.o
                0x0009aa38                arp_wait_try
 .bss.net_arp_wait_reply_ip
                0x0009aa3c        0x4 net/built-in.o
 .bss.net_arp_wait_packet_ip
                0x0009aa40        0x4 net/built-in.o
                0x0009aa40                net_arp_wait_packet_ip
 .bss.arp_wait_timer_start
                0x0009aa44        0x4 net/built-in.o
                0x0009aa44                arp_wait_timer_start
 .bss.dhcp_state
                0x0009aa48        0x4 net/built-in.o
 .bss.net_hostname
                0x0009aa4c       0x20 net/built-in.o
                0x0009aa4c                net_hostname
 .bss.bootp_timeout
                0x0009aa6c        0x4 net/built-in.o
                0x0009aa6c                bootp_timeout
 .bss.dhcp_server_ip
                0x0009aa70        0x4 net/built-in.o
 .bss.dhcp_option_overload
                0x0009aa74        0x1 net/built-in.o
 *fill*         0x0009aa75        0x3 00
 .bss.time_taken_max
                0x0009aa78        0x4 net/built-in.o
 .bss.net_root_path
                0x0009aa7c       0x40 net/built-in.o
                0x0009aa7c                net_root_path
 .bss.bootp_ids
                0x0009aabc       0x10 net/built-in.o
                0x0009aabc                bootp_ids
 .bss.bootp_num_ids
                0x0009aacc        0x4 net/built-in.o
                0x0009aacc                bootp_num_ids
 .bss.bootp_try
                0x0009aad0        0x4 net/built-in.o
                0x0009aad0                bootp_try
 .bss.bootp_start
                0x0009aad4        0x4 net/built-in.o
                0x0009aad4                bootp_start
 .bss.dhcp_leasetime
                0x0009aad8        0x4 net/built-in.o
 .bss.net_nis_domain
                0x0009aadc       0x20 net/built-in.o
                0x0009aadc                net_nis_domain
 .bss.index.5500
                0x0009aafc        0x4 net/built-in.o
 .bss.eth_current
                0x0009ab00        0x4 net/built-in.o
                0x0009ab00                eth_current
 .bss.eth_devices
                0x0009ab04        0x4 net/built-in.o
 .bss.env_changed_id.7486
                0x0009ab08        0x4 net/built-in.o
 .bss.first_failed.7464
                0x0009ab0c        0x4 net/built-in.o
 .bss.act.7485  0x0009ab10        0x4 net/built-in.o
 .bss.net_try_count
                0x0009ab14        0x4 net/built-in.o
 .bss.net_ethaddr
                0x0009ab18        0x8 net/built-in.o
                0x0009ab18                net_ethaddr
 .bss.net_dns_server
                0x0009ab20        0x4 net/built-in.o
                0x0009ab20                net_dns_server
 .bss.net_state
                0x0009ab24        0x4 net/built-in.o
                0x0009ab24                net_state
 .bss.net_server_ip
                0x0009ab28        0x4 net/built-in.o
                0x0009ab28                net_server_ip
 .bss.net_rx_packet
                0x0009ab2c        0x4 net/built-in.o
                0x0009ab2c                net_rx_packet
 .bss.net_ip_id
                0x0009ab30        0x4 net/built-in.o
 .bss.time_start
                0x0009ab34        0x8 net/built-in.o
 .bss.net_gateway
                0x0009ab3c        0x4 net/built-in.o
                0x0009ab3c                net_gateway
 .bss.net_boot_file_size
                0x0009ab40        0x4 net/built-in.o
                0x0009ab40                net_boot_file_size
 .bss.net_boot_file_name
                0x0009ab44      0x400 net/built-in.o
                0x0009ab44                net_boot_file_name
 .bss.udp_packet_handler
                0x0009af44        0x4 net/built-in.o
 .bss.net_dev_exists
                0x0009af48        0x4 net/built-in.o
 .bss.net_rx_packet_len
                0x0009af4c        0x4 net/built-in.o
                0x0009af4c                net_rx_packet_len
 .bss.net_restart_wrap
                0x0009af50        0x4 net/built-in.o
                0x0009af50                net_restart_wrap
 .bss.net_boot_file_expected_size_in_blocks
                0x0009af54        0x4 net/built-in.o
                0x0009af54                net_boot_file_expected_size_in_blocks
 .bss.net_busy_flag
                0x0009af58        0x4 net/built-in.o
                0x0009af58                net_busy_flag
 .bss.net_restarted
                0x0009af5c        0x4 net/built-in.o
 .bss.net_server_ethaddr
                0x0009af60        0x8 net/built-in.o
                0x0009af60                net_server_ethaddr
 .bss.net_rx_packets
                0x0009af68       0x10 net/built-in.o
                0x0009af68                net_rx_packets
 .bss.net_null_ethaddr
                0x0009af78        0x8 net/built-in.o
                0x0009af78                net_null_ethaddr
 .bss.net_netmask
                0x0009af80        0x4 net/built-in.o
                0x0009af80                net_netmask
 .bss.time_delta
                0x0009af84        0x4 net/built-in.o
 .bss.net_ip    0x0009af88        0x4 net/built-in.o
                0x0009af88                net_ip
 .bss.arp_packet_handler
                0x0009af8c        0x4 net/built-in.o
 .bss.net_tx_packet
                0x0009af90        0x4 net/built-in.o
                0x0009af90                net_tx_packet
 .bss.time_handler
                0x0009af94        0x4 net/built-in.o
 .bss.push_packet
                0x0009af98        0x4 net/built-in.o
                0x0009af98                push_packet
 .bss.net_pkt_buf
                0x0009af9c     0x1e20 net/built-in.o
 .bss.nfs_server_mount_port
                0x0009cdbc        0x4 net/built-in.o
 .bss.nfs_server_ip
                0x0009cdc0        0x4 net/built-in.o
 .bss.nfs_filename
                0x0009cdc4        0x4 net/built-in.o
 .bss.nfs_state
                0x0009cdc8        0x4 net/built-in.o
 .bss.filefh3_length
                0x0009cdcc        0x4 net/built-in.o
 .bss.dirfh     0x0009cdd0       0x20 net/built-in.o
 .bss.rpc_id    0x0009cdf0        0x4 net/built-in.o
 .bss.fs_mounted
                0x0009cdf4        0x4 net/built-in.o
 .bss.nfs_download_state
                0x0009cdf8        0x4 net/built-in.o
 .bss.nfs_len   0x0009cdfc        0x4 net/built-in.o
 .bss.nfs_server_port
                0x0009ce00        0x4 net/built-in.o
 .bss.nfs_path  0x0009ce04        0x4 net/built-in.o
 .bss.nfs_path_buff
                0x0009ce08      0x800 net/built-in.o
 .bss.nfs_timeout_count
                0x0009d608        0x4 net/built-in.o
 .bss.filefh    0x0009d60c       0x40 net/built-in.o
 .bss.nfs_our_port
                0x0009d64c        0x4 net/built-in.o
 .bss.net_ping_ip
                0x0009d650        0x4 net/built-in.o
                0x0009d650                net_ping_ip
 .bss.ping_seq_number
                0x0009d654        0x2 net/built-in.o
 *fill*         0x0009d656        0x2 00
 .bss.default_filename
                0x0009d658       0x10 net/built-in.o
 .bss.tftp_block_wrap
                0x0009d668        0x4 net/built-in.o
 .bss.tftp_remote_port
                0x0009d66c        0x4 net/built-in.o
 .bss.tftp_cur_block
                0x0009d670        0x4 net/built-in.o
 .bss.tftp_remote_ip
                0x0009d674        0x4 net/built-in.o
 .bss.tftp_state
                0x0009d678        0x4 net/built-in.o
 .bss.tftp_our_port
                0x0009d67c        0x4 net/built-in.o
 .bss.timeout_count
                0x0009d680        0x4 net/built-in.o
 .bss.tftp_filename
                0x0009d684       0x80 net/built-in.o
 .bss.tftp_block_wrap_offset
                0x0009d704        0x4 net/built-in.o
 .bss.tftp_prev_block
                0x0009d708        0x4 net/built-in.o
                0x0009d70c                . = ALIGN (0x4)
                0x0009d70c                __bss_limit = .

.bss_end        0x0009d70c        0x0
 *(.__bss_end)
 .__bss_end     0x0009d70c        0x0 arch/arm/lib/built-in.o
                0x0009d70c                __bss_end

.dynsym         0x000890f0       0x60
 *(.dynsym)
 .dynsym        0x000890f0       0x60 arch/arm/cpu/arm920t/start.o

.dynbss         0x00089150        0x0
 *(.dynbss)
 .dynbss        0x00000000        0x0 arch/arm/cpu/arm920t/start.o

.dynstr         0x00089150       0x2a
 *(.dynstr*)
 .dynstr        0x00089150       0x2a arch/arm/cpu/arm920t/start.o

.dynamic        0x0008917c       0x90
 *(.dynamic*)
 .dynamic       0x0008917c       0x90 arch/arm/cpu/arm920t/start.o
                0x0008917c                _DYNAMIC

.plt            0x0008920c        0x0
 *(.plt*)
 .plt           0x00000000        0x0 arch/arm/cpu/arm920t/start.o

.interp         0x0008920c       0x11
 *(.interp*)
 .interp        0x0008920c       0x11 arch/arm/cpu/arm920t/start.o

.gnu.hash       0x00089220       0x2c
 *(.gnu.hash)
 .gnu.hash      0x00089220       0x2c arch/arm/cpu/arm920t/start.o

.gnu            0x0008924c        0x0
 *(.gnu*)
 .gnu.version_d
                0x00000000        0x0 arch/arm/cpu/arm920t/start.o
 .gnu.version   0x00000000        0x0 arch/arm/cpu/arm920t/start.o
 .gnu.version_r
                0x00000000        0x0 arch/arm/cpu/arm920t/start.o

.ARM.exidx
 *(.ARM.exidx*)

.gnu.linkonce.armexidx
 *(.gnu.linkonce.armexidx.*)
LOAD arch/arm/cpu/arm920t/start.o
START GROUP
LOAD arch/arm/cpu/built-in.o
LOAD arch/arm/cpu/arm920t/built-in.o
LOAD arch/arm/lib/built-in.o
LOAD board/samsung/JZ2440/built-in.o
LOAD board/samsung/common/built-in.o
LOAD cmd/built-in.o
LOAD common/built-in.o
LOAD disk/built-in.o
LOAD drivers/built-in.o
LOAD drivers/dma/built-in.o
LOAD drivers/gpio/built-in.o
LOAD drivers/i2c/built-in.o
LOAD drivers/mmc/built-in.o
LOAD drivers/mtd/built-in.o
LOAD drivers/mtd/nand/built-in.o
LOAD drivers/mtd/onenand/built-in.o
LOAD drivers/mtd/spi/built-in.o
LOAD drivers/mtd/ubi/built-in.o
LOAD drivers/net/built-in.o
LOAD drivers/net/phy/built-in.o
LOAD drivers/pci/built-in.o
LOAD drivers/power/built-in.o
LOAD drivers/power/battery/built-in.o
LOAD drivers/power/domain/built-in.o
LOAD drivers/power/fuel_gauge/built-in.o
LOAD drivers/power/mfd/built-in.o
LOAD drivers/power/pmic/built-in.o
LOAD drivers/power/regulator/built-in.o
LOAD drivers/serial/built-in.o
LOAD drivers/spi/built-in.o
LOAD drivers/usb/common/built-in.o
LOAD drivers/usb/dwc3/built-in.o
LOAD drivers/usb/emul/built-in.o
LOAD drivers/usb/eth/built-in.o
LOAD drivers/usb/gadget/built-in.o
LOAD drivers/usb/gadget/udc/built-in.o
LOAD drivers/usb/host/built-in.o
LOAD drivers/usb/musb-new/built-in.o
LOAD drivers/usb/musb/built-in.o
LOAD drivers/usb/phy/built-in.o
LOAD drivers/usb/ulpi/built-in.o
LOAD fs/built-in.o
LOAD lib/built-in.o
LOAD net/built-in.o
LOAD test/built-in.o
LOAD test/dm/built-in.o
END GROUP
LOAD arch/arm/lib/eabi_compat.o
LOAD arch/arm/lib/lib.a
OUTPUT(u-boot elf32-littlearm)

.ARM.attributes
                0x00000000       0x26
 .ARM.attributes
                0x00000000       0x1a arch/arm/cpu/arm920t/start.o
 .ARM.attributes
                0x0000001a       0x2a arch/arm/cpu/arm920t/built-in.o
 .ARM.attributes
                0x00000044       0x26 arch/arm/lib/built-in.o
 .ARM.attributes
                0x0000006a       0x28 board/samsung/JZ2440/built-in.o
 .ARM.attributes
                0x00000092       0x2a cmd/built-in.o
 .ARM.attributes
                0x000000bc       0x2a common/built-in.o
 .ARM.attributes
                0x000000e6       0x2a disk/built-in.o
 .ARM.attributes
                0x00000110       0x2a drivers/built-in.o
 .ARM.attributes
                0x0000013a       0x2a drivers/mtd/built-in.o
 .ARM.attributes
                0x00000164       0x2a drivers/mtd/nand/built-in.o
 .ARM.attributes
                0x0000018e       0x2a drivers/mtd/ubi/built-in.o
 .ARM.attributes
                0x000001b8       0x2a drivers/net/built-in.o
 .ARM.attributes
                0x000001e2       0x2a drivers/serial/built-in.o
 .ARM.attributes
                0x0000020c       0x2a drivers/spi/built-in.o
 .ARM.attributes
                0x00000236       0x2a drivers/usb/host/built-in.o
 .ARM.attributes
                0x00000260       0x2a fs/built-in.o
 .ARM.attributes
                0x0000028a       0x2a lib/built-in.o
 .ARM.attributes
                0x000002b4       0x2a net/built-in.o
 .ARM.attributes
                0x000002de       0x2a test/dm/built-in.o
 .ARM.attributes
                0x00000308       0x2a arch/arm/lib/eabi_compat.o
 .ARM.attributes
                0x00000332       0x1a arch/arm/lib/lib.a(ashldi3.o)
 .ARM.attributes
                0x0000034c       0x1a arch/arm/lib/lib.a(ashrdi3.o)
 .ARM.attributes
                0x00000366       0x1a arch/arm/lib/lib.a(lib1funcs.o)
 .ARM.attributes
                0x00000380       0x1a arch/arm/lib/lib.a(lshrdi3.o)
 .ARM.attributes
                0x0000039a       0x2a arch/arm/lib/lib.a(div0.o)

.note.GNU-stack
                0x00000000        0x0
 .note.GNU-stack
                0x00000000        0x0 arch/arm/cpu/arm920t/built-in.o
 .note.GNU-stack
                0x00000000        0x0 arch/arm/lib/built-in.o
 .note.GNU-stack
                0x00000000        0x0 board/samsung/JZ2440/built-in.o
 .note.GNU-stack
                0x00000000        0x0 cmd/built-in.o
 .note.GNU-stack
                0x00000000        0x0 common/built-in.o
 .note.GNU-stack
                0x00000000        0x0 disk/built-in.o
 .note.GNU-stack
                0x00000000        0x0 drivers/built-in.o
 .note.GNU-stack
                0x00000000        0x0 drivers/mtd/built-in.o
 .note.GNU-stack
                0x00000000        0x0 drivers/mtd/nand/built-in.o
 .note.GNU-stack
                0x00000000        0x0 drivers/mtd/ubi/built-in.o
 .note.GNU-stack
                0x00000000        0x0 drivers/net/built-in.o
 .note.GNU-stack
                0x00000000        0x0 drivers/serial/built-in.o
 .note.GNU-stack
                0x00000000        0x0 drivers/spi/built-in.o
 .note.GNU-stack
                0x00000000        0x0 drivers/usb/host/built-in.o
 .note.GNU-stack
                0x00000000        0x0 fs/built-in.o
 .note.GNU-stack
                0x00000000        0x0 lib/built-in.o
 .note.GNU-stack
                0x00000000        0x0 net/built-in.o
 .note.GNU-stack
                0x00000000        0x0 test/dm/built-in.o
 .note.GNU-stack
                0x00000000        0x0 arch/arm/lib/eabi_compat.o
 .note.GNU-stack
                0x00000000        0x0 arch/arm/lib/lib.a(div0.o)

.comment        0x00000000       0x18
 .comment       0x00000000       0x18 arch/arm/cpu/arm920t/built-in.o
                                 0x7d (size before relaxing)
 .comment       0x00000000       0xe1 arch/arm/lib/built-in.o
 .comment       0x00000000       0x19 board/samsung/JZ2440/built-in.o
 .comment       0x00000000      0x2bc cmd/built-in.o
 .comment       0x00000000      0x384 common/built-in.o
 .comment       0x00000000       0x32 disk/built-in.o
 .comment       0x00000000      0x145 drivers/built-in.o
 .comment       0x00000000       0x7d drivers/mtd/built-in.o
 .comment       0x00000000       0xc8 drivers/mtd/nand/built-in.o
 .comment       0x00000000      0x12c drivers/mtd/ubi/built-in.o
 .comment       0x00000000       0x19 drivers/net/built-in.o
 .comment       0x00000000       0x32 drivers/serial/built-in.o
 .comment       0x00000000       0x19 drivers/spi/built-in.o
 .comment       0x00000000       0x19 drivers/usb/host/built-in.o
 .comment       0x00000000      0x401 fs/built-in.o
 .comment       0x00000000      0x578 lib/built-in.o
 .comment       0x00000000       0xe1 net/built-in.o
 .comment       0x00000000       0x19 test/dm/built-in.o
 .comment       0x00000000       0x19 arch/arm/lib/eabi_compat.o
 .comment       0x00000000       0x19 arch/arm/lib/lib.a(div0.o)

.debug_line     0x00000000    0x2d539
 .debug_line    0x00000000       0x6f arch/arm/cpu/arm920t/start.o
 .debug_line    0x0000006f      0x69a arch/arm/cpu/arm920t/built-in.o
 .debug_line    0x00000709      0xd2f arch/arm/lib/built-in.o
 .debug_line    0x00001438      0x25f board/samsung/JZ2440/built-in.o
 .debug_line    0x00001697     0x43dd cmd/built-in.o
 .debug_line    0x00005a74     0x6467 common/built-in.o
 .debug_line    0x0000bedb      0x4da disk/built-in.o
 .debug_line    0x0000c3b5     0x1b0e drivers/built-in.o
 .debug_line    0x0000dec3     0x15b1 drivers/mtd/built-in.o
 .debug_line    0x0000f474     0x263a drivers/mtd/nand/built-in.o
 .debug_line    0x00011aae     0x3fbb drivers/mtd/ubi/built-in.o
 .debug_line    0x00015a69      0x43d drivers/net/built-in.o
 .debug_line    0x00015ea6      0x660 drivers/serial/built-in.o
 .debug_line    0x00016506       0xd8 drivers/spi/built-in.o
 .debug_line    0x000165de      0x5df drivers/usb/host/built-in.o
 .debug_line    0x00016bbd     0xcb1a fs/built-in.o
 .debug_line    0x000236d7     0x7ca4 lib/built-in.o
 .debug_line    0x0002b37b     0x1d62 net/built-in.o
 .debug_line    0x0002d0dd      0x10f test/dm/built-in.o
 .debug_line    0x0002d1ec      0x10d arch/arm/lib/eabi_compat.o
 .debug_line    0x0002d2f9       0x4c arch/arm/lib/lib.a(ashldi3.o)
 .debug_line    0x0002d345       0x4c arch/arm/lib/lib.a(ashrdi3.o)
 .debug_line    0x0002d391      0x117 arch/arm/lib/lib.a(lib1funcs.o)
 .debug_line    0x0002d4a8       0x4c arch/arm/lib/lib.a(lshrdi3.o)
 .debug_line    0x0002d4f4       0x45 arch/arm/lib/lib.a(div0.o)

.debug_info     0x00000000   0x13b577
 .debug_info    0x00000000       0x63 arch/arm/cpu/arm920t/start.o
 .debug_info    0x00000063     0x246a arch/arm/cpu/arm920t/built-in.o
 .debug_info    0x000024cd     0x46e9 arch/arm/lib/built-in.o
 .debug_info    0x00006bb6     0x1408 board/samsung/JZ2440/built-in.o
 .debug_info    0x00007fbe    0x1b8b5 cmd/built-in.o
 .debug_info    0x00023873    0x21efd common/built-in.o
 .debug_info    0x00045770     0x1d4a disk/built-in.o
 .debug_info    0x000474ba     0xa3d7 drivers/built-in.o
 .debug_info    0x00051891     0x77b0 drivers/mtd/built-in.o
 .debug_info    0x00059041    0x10365 drivers/mtd/nand/built-in.o
 .debug_info    0x000693a6    0x1dec9 drivers/mtd/ubi/built-in.o
 .debug_info    0x0008726f     0x1c86 drivers/net/built-in.o
 .debug_info    0x00088ef5     0x1edb drivers/serial/built-in.o
 .debug_info    0x0008add0      0x4cd drivers/spi/built-in.o
 .debug_info    0x0008b29d     0x2f2d drivers/usb/host/built-in.o
 .debug_info    0x0008e1ca    0x7ea72 fs/built-in.o
 .debug_info    0x0010cc3c    0x258c8 lib/built-in.o
 .debug_info    0x00132504     0x845d net/built-in.o
 .debug_info    0x0013a961      0x5fa test/dm/built-in.o
 .debug_info    0x0013af5b      0x46d arch/arm/lib/eabi_compat.o
 .debug_info    0x0013b3c8       0x5d arch/arm/lib/lib.a(ashldi3.o)
 .debug_info    0x0013b425       0x5d arch/arm/lib/lib.a(ashrdi3.o)
 .debug_info    0x0013b482       0x5b arch/arm/lib/lib.a(lib1funcs.o)
 .debug_info    0x0013b4dd       0x5d arch/arm/lib/lib.a(lshrdi3.o)
 .debug_info    0x0013b53a       0x3d arch/arm/lib/lib.a(div0.o)

.debug_abbrev   0x00000000    0x27ca5
 .debug_abbrev  0x00000000       0x14 arch/arm/cpu/arm920t/start.o
 .debug_abbrev  0x00000014      0x8cb arch/arm/cpu/arm920t/built-in.o
 .debug_abbrev  0x000008df      0xf87 arch/arm/lib/built-in.o
 .debug_abbrev  0x00001866      0x2c0 board/samsung/JZ2440/built-in.o
 .debug_abbrev  0x00001b26     0x45e6 cmd/built-in.o
 .debug_abbrev  0x0000610c     0x6327 common/built-in.o
 .debug_abbrev  0x0000c433      0x60c disk/built-in.o
 .debug_abbrev  0x0000ca3f     0x1cd9 drivers/built-in.o
 .debug_abbrev  0x0000e718      0xf7e drivers/mtd/built-in.o
 .debug_abbrev  0x0000f696     0x1813 drivers/mtd/nand/built-in.o
 .debug_abbrev  0x00010ea9     0x304a drivers/mtd/ubi/built-in.o
 .debug_abbrev  0x00013ef3      0x332 drivers/net/built-in.o
 .debug_abbrev  0x00014225      0x5fa drivers/serial/built-in.o
 .debug_abbrev  0x0001481f      0x155 drivers/spi/built-in.o
 .debug_abbrev  0x00014974      0x3b2 drivers/usb/host/built-in.o
 .debug_abbrev  0x00014d26     0x9d1d fs/built-in.o
 .debug_abbrev  0x0001ea43     0x7232 lib/built-in.o
 .debug_abbrev  0x00025c75     0x1cd8 net/built-in.o
 .debug_abbrev  0x0002794d      0x193 test/dm/built-in.o
 .debug_abbrev  0x00027ae0      0x14c arch/arm/lib/eabi_compat.o
 .debug_abbrev  0x00027c2c       0x14 arch/arm/lib/lib.a(ashldi3.o)
 .debug_abbrev  0x00027c40       0x14 arch/arm/lib/lib.a(ashrdi3.o)
 .debug_abbrev  0x00027c54       0x12 arch/arm/lib/lib.a(lib1funcs.o)
 .debug_abbrev  0x00027c66       0x14 arch/arm/lib/lib.a(lshrdi3.o)
 .debug_abbrev  0x00027c7a       0x2b arch/arm/lib/lib.a(div0.o)

.debug_aranges  0x00000000     0x5ca8
 .debug_aranges
                0x00000000       0x20 arch/arm/cpu/arm920t/start.o
 .debug_aranges
                0x00000020      0x120 arch/arm/cpu/arm920t/built-in.o
 .debug_aranges
                0x00000140      0x288 arch/arm/lib/built-in.o
 .debug_aranges
                0x000003c8       0x78 board/samsung/JZ2440/built-in.o
 .debug_aranges
                0x00000440      0x778 cmd/built-in.o
 .debug_aranges
                0x00000bb8     0x1038 common/built-in.o
 .debug_aranges
                0x00001bf0       0xa0 disk/built-in.o
 .debug_aranges
                0x00001c90      0x498 drivers/built-in.o
 .debug_aranges
                0x00002128      0x2d8 drivers/mtd/built-in.o
 .debug_aranges
                0x00002400      0x3c8 drivers/mtd/nand/built-in.o
 .debug_aranges
                0x000027c8      0x510 drivers/mtd/ubi/built-in.o
 .debug_aranges
                0x00002cd8       0xa8 drivers/net/built-in.o
 .debug_aranges
                0x00002d80      0x188 drivers/serial/built-in.o
 .debug_aranges
                0x00002f08       0x28 drivers/spi/built-in.o
 .debug_aranges
                0x00002f30       0x68 drivers/usb/host/built-in.o
 .debug_aranges
                0x00002f98     0x1658 fs/built-in.o
 .debug_aranges
                0x000045f0     0x1178 lib/built-in.o
 .debug_aranges
                0x00005768      0x400 net/built-in.o
 .debug_aranges
                0x00005b68       0x38 test/dm/built-in.o
 .debug_aranges
                0x00005ba0       0x40 arch/arm/lib/eabi_compat.o
 .debug_aranges
                0x00005be0       0x20 arch/arm/lib/lib.a(ashldi3.o)
 .debug_aranges
                0x00005c00       0x20 arch/arm/lib/lib.a(ashrdi3.o)
 .debug_aranges
                0x00005c20       0x48 arch/arm/lib/lib.a(lib1funcs.o)
 .debug_aranges
                0x00005c68       0x20 arch/arm/lib/lib.a(lshrdi3.o)
 .debug_aranges
                0x00005c88       0x20 arch/arm/lib/lib.a(div0.o)

.debug_pubnames
                0x00000000     0xa405
 .debug_pubnames
                0x00000000      0x192 arch/arm/cpu/arm920t/built-in.o
 .debug_pubnames
                0x00000192      0x53a arch/arm/lib/built-in.o
 .debug_pubnames
                0x000006cc       0xc3 board/samsung/JZ2440/built-in.o
 .debug_pubnames
                0x0000078f      0xedf cmd/built-in.o
 .debug_pubnames
                0x0000166e     0x1d09 common/built-in.o
 .debug_pubnames
                0x00003377       0xfc disk/built-in.o
 .debug_pubnames
                0x00003473      0xae1 drivers/built-in.o
 .debug_pubnames
                0x00003f54      0x4bb drivers/mtd/built-in.o
 .debug_pubnames
                0x0000440f      0x376 drivers/mtd/nand/built-in.o
 .debug_pubnames
                0x00004785      0x8b3 drivers/mtd/ubi/built-in.o
 .debug_pubnames
                0x00005038       0x5d drivers/net/built-in.o
 .debug_pubnames
                0x00005095      0x34b drivers/serial/built-in.o
 .debug_pubnames
                0x000053e0       0x3d drivers/spi/built-in.o
 .debug_pubnames
                0x0000541d      0x128 drivers/usb/host/built-in.o
 .debug_pubnames
                0x00005545     0x2b7a fs/built-in.o
 .debug_pubnames
                0x000080bf     0x18d3 lib/built-in.o
 .debug_pubnames
                0x00009992      0x9b0 net/built-in.o
 .debug_pubnames
                0x0000a342       0x2e test/dm/built-in.o
 .debug_pubnames
                0x0000a370       0x78 arch/arm/lib/eabi_compat.o
 .debug_pubnames
                0x0000a3e8       0x1d arch/arm/lib/lib.a(div0.o)

.debug_frame    0x00000000    0x12828
 .debug_frame   0x00000000      0x238 arch/arm/cpu/arm920t/built-in.o
 .debug_frame   0x00000238      0x4a4 arch/arm/lib/built-in.o
 .debug_frame   0x000006dc       0x9c board/samsung/JZ2440/built-in.o
 .debug_frame   0x00000778     0x1758 cmd/built-in.o
 .debug_frame   0x00001ed0     0x3124 common/built-in.o
 .debug_frame   0x00004ff4      0x22c disk/built-in.o
 .debug_frame   0x00005220      0xe20 drivers/built-in.o
 .debug_frame   0x00006040      0xb34 drivers/mtd/built-in.o
 .debug_frame   0x00006b74      0xea0 drivers/mtd/nand/built-in.o
 .debug_frame   0x00007a14     0x1254 drivers/mtd/ubi/built-in.o
 .debug_frame   0x00008c68      0x1f8 drivers/net/built-in.o
 .debug_frame   0x00008e60      0x464 drivers/serial/built-in.o
 .debug_frame   0x000092c4       0x54 drivers/spi/built-in.o
 .debug_frame   0x00009318      0x168 drivers/usb/host/built-in.o
 .debug_frame   0x00009480     0x4fe8 fs/built-in.o
 .debug_frame   0x0000e468     0x35c0 lib/built-in.o
 .debug_frame   0x00011a28      0xcf4 net/built-in.o
 .debug_frame   0x0001271c       0x80 test/dm/built-in.o
 .debug_frame   0x0001279c       0x6c arch/arm/lib/eabi_compat.o
 .debug_frame   0x00012808       0x20 arch/arm/lib/lib.a(div0.o)

.debug_str      0x00000000    0x1caa1
 .debug_str     0x00000000      0x7d5 arch/arm/cpu/arm920t/built-in.o
                               0x136d (size before relaxing)
 .debug_str     0x000007d5     0x1345 arch/arm/lib/built-in.o
                               0x3121 (size before relaxing)
 .debug_str     0x00001b1a      0x28e board/samsung/JZ2440/built-in.o
                                0x91a (size before relaxing)
 .debug_str     0x00001da8     0x4657 cmd/built-in.o
                              0x10088 (size before relaxing)
 .debug_str     0x000063ff     0x3de0 common/built-in.o
                              0x15dd5 (size before relaxing)
 .debug_str     0x0000a1df      0x2fb disk/built-in.o
                                0xd6c (size before relaxing)
 .debug_str     0x0000a4da     0x101d drivers/built-in.o
                               0x6177 (size before relaxing)
 .debug_str     0x0000b4f7      0xb58 drivers/mtd/built-in.o
                               0x32e7 (size before relaxing)
 .debug_str     0x0000c04f     0x1365 drivers/mtd/nand/built-in.o
                               0x7367 (size before relaxing)
 .debug_str     0x0000d3b4     0x154a drivers/mtd/ubi/built-in.o
                               0xbfa7 (size before relaxing)
 .debug_str     0x0000e8fe      0x2f0 drivers/net/built-in.o
                                0x5c0 (size before relaxing)
 .debug_str     0x0000ebee      0x422 drivers/serial/built-in.o
                                0xda7 (size before relaxing)
 .debug_str     0x0000f010       0x47 drivers/spi/built-in.o
                                0x31c (size before relaxing)
 .debug_str     0x0000f057      0x4f9 drivers/usb/host/built-in.o
                                0xf3b (size before relaxing)
 .debug_str     0x0000f550     0x7e6b fs/built-in.o
                              0x3bfb1 (size before relaxing)
 .debug_str     0x000173bb     0x41e6 lib/built-in.o
                              0x11d8b (size before relaxing)
 .debug_str     0x0001b5a1     0x13f8 net/built-in.o
                               0x6330 (size before relaxing)
 .debug_str     0x0001c999       0x79 test/dm/built-in.o
                                0x39a (size before relaxing)
 .debug_str     0x0001ca12       0x74 arch/arm/lib/eabi_compat.o
                                0x31f (size before relaxing)
 .debug_str     0x0001ca86       0x1b arch/arm/lib/lib.a(div0.o)
                                 0x47 (size before relaxing)

.debug_loc      0x00000000    0x5c33f
 .debug_loc     0x00000000      0x504 arch/arm/cpu/arm920t/built-in.o
 .debug_loc     0x00000504      0x90b arch/arm/lib/built-in.o
 .debug_loc     0x00000e0f      0x135 board/samsung/JZ2440/built-in.o
 .debug_loc     0x00000f44     0xa1ef cmd/built-in.o
 .debug_loc     0x0000b133     0xc07c common/built-in.o
 .debug_loc     0x000171af      0x92f disk/built-in.o
 .debug_loc     0x00017ade     0x2e50 drivers/built-in.o
 .debug_loc     0x0001a92e     0x301c drivers/mtd/built-in.o
 .debug_loc     0x0001d94a     0x558e drivers/mtd/nand/built-in.o
 .debug_loc     0x00022ed8     0x6d57 drivers/mtd/ubi/built-in.o
 .debug_loc     0x00029c2f      0x552 drivers/net/built-in.o
 .debug_loc     0x0002a181      0x712 drivers/serial/built-in.o
 .debug_loc     0x0002a893       0xf2 drivers/spi/built-in.o
 .debug_loc     0x0002a985     0x112c drivers/usb/host/built-in.o
 .debug_loc     0x0002bab1    0x1c2f2 fs/built-in.o
 .debug_loc     0x00047da3    0x11920 lib/built-in.o
 .debug_loc     0x000596c3     0x2a19 net/built-in.o
 .debug_loc     0x0005c0dc      0x1a9 test/dm/built-in.o
 .debug_loc     0x0005c285       0xba arch/arm/lib/eabi_compat.o

.debug_ranges   0x00000000    0x15820
 .debug_ranges  0x00000000      0x2f8 arch/arm/cpu/arm920t/built-in.o
 .debug_ranges  0x000002f8      0x2d0 arch/arm/lib/built-in.o
 .debug_ranges  0x000005c8      0x128 board/samsung/JZ2440/built-in.o
 .debug_ranges  0x000006f0     0x1800 cmd/built-in.o
 .debug_ranges  0x00001ef0     0x1fe8 common/built-in.o
 .debug_ranges  0x00003ed8      0x228 disk/built-in.o
 .debug_ranges  0x00004100      0xae0 drivers/built-in.o
 .debug_ranges  0x00004be0      0xe98 drivers/mtd/built-in.o
 .debug_ranges  0x00005a78     0x1020 drivers/mtd/nand/built-in.o
 .debug_ranges  0x00006a98     0x2178 drivers/mtd/ubi/built-in.o
 .debug_ranges  0x00008c10      0x420 drivers/net/built-in.o
 .debug_ranges  0x00009030      0x340 drivers/serial/built-in.o
 .debug_ranges  0x00009370       0x20 drivers/spi/built-in.o
 .debug_ranges  0x00009390      0x438 drivers/usb/host/built-in.o
 .debug_ranges  0x000097c8     0x7008 fs/built-in.o
 .debug_ranges  0x000107d0     0x42d0 lib/built-in.o
 .debug_ranges  0x00014aa0      0xcc0 net/built-in.o
 .debug_ranges  0x00015760       0x30 test/dm/built-in.o
 .debug_ranges  0x00015790       0x38 arch/arm/lib/eabi_compat.o
 .debug_ranges  0x000157c8       0x40 arch/arm/lib/lib.a(lib1funcs.o)
 .debug_ranges  0x00015808       0x18 arch/arm/lib/lib.a(div0.o)
